
 Start         Length     Name                   Class
 0001:00401000 000649D0H .text                   CODE
 0002:00466000 00000C70H .itext                  ICODE
 0003:00467000 00002D68H .data                   DATA
 0004:0046A000 000053B8H .bss                    BSS
 0005:00000000 00000014H .tls                    TLS
 0006:00400000 00000000H .pdata                  PDATA


Detailed map of segments

 0001:00000000 00008B60 C=CODE     S=.text    G=(none)   M=System   ACBP=A9
 0001:00008B60 00000730 C=CODE     S=.text    G=(none)   M=SysInit  ACBP=A9
 0001:00009290 0000090C C=CODE     S=.text    G=(none)   M=Winapi.Windows ACBP=A9
 0001:00009B9C 00000358 C=CODE     S=.text    G=(none)   M=System.SysConst ACBP=A9
 0001:00009EF4 000001F8 C=CODE     S=.text    G=(none)   M=System.RTLConsts ACBP=A9
 0001:0000A0EC 000091AC C=CODE     S=.text    G=(none)   M=System.Character ACBP=A9
 0001:00013298 00000430 C=CODE     S=.text    G=(none)   M=System.Internal.ExcUtils ACBP=A9
 0001:000136C8 0000DE0C C=CODE     S=.text    G=(none)   M=System.SysUtils ACBP=A9
 0001:000214D4 00000828 C=CODE     S=.text    G=(none)   M=System.VarUtils ACBP=A9
 0001:00021CFC 000083A8 C=CODE     S=.text    G=(none)   M=System.Variants ACBP=A9
 0001:0002A0A4 00002880 C=CODE     S=.text    G=(none)   M=System.TypInfo ACBP=A9
 0001:0002C924 00019084 C=CODE     S=.text    G=(none)   M=System.Classes ACBP=A9
 0001:000459A8 00000118 C=CODE     S=.text    G=(none)   M=System.Math ACBP=A9
 0001:00045AC0 00001D24 C=CODE     S=.text    G=(none)   M=System.TimeSpan ACBP=A9
 0001:000477E4 00000AC0 C=CODE     S=.text    G=(none)   M=System.SyncObjs ACBP=A9
 0001:000482A4 000000C4 C=CODE     S=.text    G=(none)   M=System.Rtti ACBP=A9
 0001:00048368 00013608 C=CODE     S=.text    G=(none)   M=ceflib   ACBP=A9
 0001:0005B970 000000FC C=CODE     S=.text    G=(none)   M=System.IOUtils ACBP=A9
 0001:0005BA6C 00000080 C=CODE     S=.text    G=(none)   M=System.IniFiles ACBP=A9
 0001:0005BAEC 00002FBC C=CODE     S=.text    G=(none)   M=System.Win.Registry ACBP=A9
 0001:0005EAA8 000006C4 C=CODE     S=.text    G=(none)   M=System.Contnrs ACBP=A9
 0001:0005F16C 000016A8 C=CODE     S=.text    G=(none)   M=ceffilescheme ACBP=A9
 0001:00060814 000041BC C=CODE     S=.text    G=(none)   M=cefclient ACBP=A9
 0002:00000000 000000B4 C=ICODE    S=.itext   G=(none)   M=System   ACBP=A9
 0002:000000B4 00000008 C=ICODE    S=.itext   G=(none)   M=SysInit  ACBP=A9
 0002:000000BC 00000018 C=ICODE    S=.itext   G=(none)   M=Winapi.Windows ACBP=A9
 0002:000000D4 00000020 C=ICODE    S=.itext   G=(none)   M=System.Internal.ExcUtils ACBP=A9
 0002:000000F4 00000290 C=ICODE    S=.itext   G=(none)   M=System.SysUtils ACBP=A9
 0002:00000384 00000010 C=ICODE    S=.itext   G=(none)   M=System.VarUtils ACBP=A9
 0002:00000394 000000B8 C=ICODE    S=.itext   G=(none)   M=System.Variants ACBP=A9
 0002:0000044C 00000008 C=ICODE    S=.itext   G=(none)   M=System.TypInfo ACBP=A9
 0002:00000454 00000090 C=ICODE    S=.itext   G=(none)   M=System.Classes ACBP=A9
 0002:000004E4 00000010 C=ICODE    S=.itext   G=(none)   M=System.Math ACBP=A9
 0002:000004F4 00000034 C=ICODE    S=.itext   G=(none)   M=System.TimeSpan ACBP=A9
 0002:00000528 00000010 C=ICODE    S=.itext   G=(none)   M=System.SyncObjs ACBP=A9
 0002:00000538 0000004C C=ICODE    S=.itext   G=(none)   M=System.Rtti ACBP=A9
 0002:00000584 00000014 C=ICODE    S=.itext   G=(none)   M=ceflib   ACBP=A9
 0002:00000598 00000460 C=ICODE    S=.itext   G=(none)   M=System.IOUtils ACBP=A9
 0002:000009F8 00000008 C=ICODE    S=.itext   G=(none)   M=System.IniFiles ACBP=A9
 0002:00000A00 000000A0 C=ICODE    S=.itext   G=(none)   M=System.Win.Registry ACBP=A9
 0002:00000AA0 000001D0 C=ICODE    S=.itext   G=(none)   M=cefclient ACBP=A9
 0003:00000000 00000C04 C=DATA     S=.data    G=DGROUP   M=System   ACBP=A9
 0003:00000C04 0000007C C=DATA     S=.data    G=DGROUP   M=SysInit  ACBP=A9
 0003:00000C80 0000000C C=DATA     S=.data    G=DGROUP   M=Winapi.Windows ACBP=A9
 0003:00000C8C 00000100 C=DATA     S=.data    G=DGROUP   M=System.Character ACBP=A9
 0003:00000D8C 00000118 C=DATA     S=.data    G=DGROUP   M=System.Internal.ExcUtils ACBP=A9
 0003:00000EA4 000018E0 C=DATA     S=.data    G=DGROUP   M=System.SysUtils ACBP=A9
 0003:00002784 00000008 C=DATA     S=.data    G=DGROUP   M=System.VarUtils ACBP=A9
 0003:0000278C 00000144 C=DATA     S=.data    G=DGROUP   M=System.Variants ACBP=A9
 0003:000028D0 0000000C C=DATA     S=.data    G=DGROUP   M=System.TypInfo ACBP=A9
 0003:000028DC 00000030 C=DATA     S=.data    G=DGROUP   M=System.Classes ACBP=A9
 0003:0000290C 00000008 C=DATA     S=.data    G=DGROUP   M=System.Rtti ACBP=A9
 0003:00002914 0000007C C=DATA     S=.data    G=DGROUP   M=ceflib   ACBP=A9
 0003:00002990 00000010 C=DATA     S=.data    G=DGROUP   M=System.IOUtils ACBP=A9
 0003:000029A0 0000000C C=DATA     S=.data    G=DGROUP   M=System.IniFiles ACBP=A9
 0003:000029AC 00000024 C=DATA     S=.data    G=DGROUP   M=System.Win.Registry ACBP=A9
 0003:000029D0 00000030 C=DATA     S=.data    G=DGROUP   M=ceffilescheme ACBP=A9
 0003:00002A00 00000010 C=DATA     S=.data    G=DGROUP   M=cefclient ACBP=A9
 0004:00000000 00002C44 C=BSS      S=.bss     G=DGROUP   M=System   ACBP=A9
 0004:00002C44 0000001C C=BSS      S=.bss     G=DGROUP   M=SysInit  ACBP=A9
 0004:00002C60 00000008 C=BSS      S=.bss     G=DGROUP   M=Winapi.Windows ACBP=A9
 0004:00002C68 0000001C C=BSS      S=.bss     G=DGROUP   M=System.Character ACBP=A9
 0004:00002C84 00000004 C=BSS      S=.bss     G=DGROUP   M=System.Internal.ExcUtils ACBP=A9
 0004:00002C88 00002270 C=BSS      S=.bss     G=DGROUP   M=System.SysUtils ACBP=A9
 0004:00004EF8 0000005C C=BSS      S=.bss     G=DGROUP   M=System.VarUtils ACBP=A9
 0004:00004F54 0000001C C=BSS      S=.bss     G=DGROUP   M=System.Variants ACBP=A9
 0004:00004F70 00000004 C=BSS      S=.bss     G=DGROUP   M=System.TypInfo ACBP=A9
 0004:00004F74 00000024 C=BSS      S=.bss     G=DGROUP   M=System.Classes ACBP=A9
 0004:00004F98 00000004 C=BSS      S=.bss     G=DGROUP   M=System.Math ACBP=A9
 0004:00004F9C 0000001C C=BSS      S=.bss     G=DGROUP   M=System.TimeSpan ACBP=A9
 0004:00004FB8 00000014 C=BSS      S=.bss     G=DGROUP   M=System.SyncObjs ACBP=A9
 0004:00004FCC 00000014 C=BSS      S=.bss     G=DGROUP   M=System.Rtti ACBP=A9
 0004:00004FE0 0000028C C=BSS      S=.bss     G=DGROUP   M=ceflib   ACBP=A9
 0004:0000526C 00000024 C=BSS      S=.bss     G=DGROUP   M=System.IOUtils ACBP=A9
 0004:00005290 00000004 C=BSS      S=.bss     G=DGROUP   M=System.IniFiles ACBP=A9
 0004:00005294 0000000C C=BSS      S=.bss     G=DGROUP   M=System.Win.Registry ACBP=A9
 0004:000052A0 00000118 C=BSS      S=.bss     G=DGROUP   M=cefclient ACBP=A9
 0005:00000000 00000008 C=TLS      S=.tls     G=(none)   M=System   ACBP=A9
 0005:00000008 00000004 C=TLS      S=.tls     G=(none)   M=System.SysUtils ACBP=A9
 0005:0000000C 00000008 C=TLS      S=.tls     G=(none)   M=System.Classes ACBP=A9


  Address             Publics by Name

 0004:000053B4       cefclient.$life
 0001:0006491C       cefclient..cefclient$2859$ActRec
 0001:00060814       cefclient..TCustomClient
 0001:00060AFC       cefclient..TCustomDisplay
 0001:00060988       cefclient..TCustomLifeSpan
 0001:00060A48       cefclient..TCustomLoad
 0004:000052A4       cefclient.backWnd
 0003:00002A04       cefclient.brows
 0003:00002A08       cefclient.browserId
 0004:000052BD       cefclient.canGoBack
 0004:000052BE       cefclient.canGoForward
 0002:00000AA0       cefclient.cefclient
 0001:000649C8       cefclient.cefclient$2859$ActRec.$0$Body
 0001:00060BF8       cefclient.CefWndProc
 0004:000052B4       cefclient.editWnd
 0004:000052B8       cefclient.editWndOldProc
 0001:000614F8       cefclient.Finalization
 0004:000052A8       cefclient.forwardWnd
 0003:00002A00       cefclient.handl
 0004:000052BC       cefclient.isLoading
 0003:00002A0C       cefclient.navigateto
 0001:000614CC       cefclient.RegisterSchemes
 0004:000052AC       cefclient.reloadWnd
 0004:000052C0       cefclient.setting
 0004:000052B0       cefclient.stopWnd
 0001:00061238       cefclient.TCustomClient.Create
 0001:000612C4       cefclient.TCustomClient.GetDisplayHandler
 0001:000612D8       cefclient.TCustomClient.GetLifeSpanHandler
 0001:000612EC       cefclient.TCustomClient.GetLoadHandler
 0001:00061460       cefclient.TCustomDisplay.OnAddressChange
 0001:000614A0       cefclient.TCustomDisplay.OnTitleChange
 0001:00061300       cefclient.TCustomLifeSpan.DoClose
 0001:0006132C       cefclient.TCustomLifeSpan.OnAfterCreated
 0001:00061358       cefclient.TCustomLifeSpan.OnBeforeClose
 0001:00061378       cefclient.TCustomLifeSpan.OnBeforePopup
 0001:00061408       cefclient.TCustomLoad.OnLoadEnd
 0001:0006142C       cefclient.TCustomLoad.OnLoadStart
 0004:000052A0       cefclient.Window
 0004:0000538C       cefclient.wndClass
 0001:0005F458       ceffilescheme..TFileInfo
 0001:0005F16C       ceffilescheme..TFileScheme
 0001:0005F360       ceffilescheme.Escape
 0001:0005FB60       ceffilescheme.FileSortCompare
 0001:0005FBA8       ceffilescheme.HTTPDecode
 0001:0005FEF4       ceffilescheme.OutPut
 0001:0005FF60       ceffilescheme.OutputUTF8
 0001:0005FCE0       ceffilescheme.ParseFileUrl
 0003:000029D0       ceffilescheme.s
 0001:0005F66C       ceffilescheme.TFileInfo.Create
 0001:0005FA2C       ceffilescheme.TFileInfo.Display
 0001:0005F978       ceffilescheme.TFileInfo.DisplayDate
 0001:0005F6D8       ceffilescheme.TFileInfo.DisplaySize
 0001:0005FE30       ceffilescheme.TFileScheme.Create
 0001:0005FE7C       ceffilescheme.TFileScheme.Destroy
 0001:0005FEAC       ceffilescheme.TFileScheme.GetResponseHeaders
 0001:0005FFCC       ceffilescheme.TFileScheme.ProcessRequest
 0001:000607E0       ceffilescheme.TFileScheme.ReadResponse
 0004:00004FE0       ceflib..611
 0001:0004FE94       ceflib..ECefException
 0001:0004D748       ceflib..TCefAppOwn
 0001:0004972C       ceflib..TCefBaseOwn
 0001:000498E8       ceflib..TCefBaseRef
 0001:0004EF74       ceflib..TCefBinaryValueRef
 0001:00049FA8       ceflib..TCefBrowserHostRef
 0001:0004A1F0       ceflib..TCefBrowserRef
 0001:0004BDD4       ceflib..TCefCallbackRef
 0001:0004B750       ceflib..TCefClientOwn
 0001:0004E6B8       ceflib..TCefCommandLineRef
 0001:0004BF2C       ceflib..TCefCompletionCallbackOwn
 0001:0004DE44       ceflib..TCefCookieManagerRef
 0001:0004D2E4       ceflib..TCefCookieVisitorOwn
 0001:0004DB18       ceflib..TCefDeleteCookiesCallbackOwn
 0001:0004F274       ceflib..TCefDictionaryValueRef
 0001:0004BC64       ceflib..TCefDisplayHandlerOwn
 0001:0004CA78       ceflib..TCefDomDocumentRef
 0001:0004CCF0       ceflib..TCefDomNodeRef
 0001:0004C77C       ceflib..TCefDomVisitorOwn
 0001:0004C018       ceflib..TCefFastCompletionCallback
 0001:0004D3C8       ceflib..TCefFastCookieVisitor
 0001:0004DC0C       ceflib..TCefFastDeleteCookiesCallback
 0001:0004C858       ceflib..TCefFastDomVisitor
 0001:0004FAEC       ceflib..TCefFastNavigationEntryVisitor
 0001:0004FD70       ceflib..TCefFastPdfPrintCallback
 0001:00049BD8       ceflib..TCefFastRunFileDialogCallback
 0001:0004D980       ceflib..TCefFastSetCookieCallback
 0001:0004E44C       ceflib..TCefFastStringVisitor
 0001:0004D12C       ceflib..TCefFastV8Accessor
 0001:0004A478       ceflib..TCefFrameRef
 0001:0004B90C       ceflib..TCefLifeSpanHandlerOwn
 0001:0004EB28       ceflib..TCefListValueRef
 0001:0004BAA4       ceflib..TCefLoadHandlerOwn
 0001:0004F898       ceflib..TCefNavigationEntryRef
 0001:0004F9FC       ceflib..TCefNavigationEntryVisitorOwn
 0001:0004FC88       ceflib..TCefPdfPrintCallbackOwn
 0001:0004A7DC       ceflib..TCefPostDataElementRef
 0001:0004A600       ceflib..TCefPostDataRef
 0001:0004E158       ceflib..TCefProcessMessageRef
 0001:0004F6CC       ceflib..TCefRequestContextHandlerRef
 0001:0004F478       ceflib..TCefRequestContextRef
 0001:0004AA34       ceflib..TCefRequestRef
 0001:0004C204       ceflib..TCefResourceHandlerOwn
 0001:0004CEAC       ceflib..TCefResponseRef
 0001:00049AE8       ceflib..TCefRunFileDialogCallbackOwn
 0001:0004C3D4       ceflib..TCefSchemeHandlerFactoryOwn
 0001:0004E884       ceflib..TCefSchemeRegistrarRef
 0001:0004D894       ceflib..TCefSetCookieCallbackOwn
 0001:0004E2FC       ceflib..TCefStringVisitorOwn
 0001:0004C58C       ceflib..TCefTaskRunnerRef
 0001:0004D04C       ceflib..TCefV8AccessorOwn
 0001:0004B374       ceflib..TCefv8ContextRef
 0001:0004D5A8       ceflib..TCefV8ExceptionRef
 0001:0004B53C       ceflib..TCefv8HandlerRef
 0001:0004AE40       ceflib..TCefv8ValueRef
 0001:0004EDAC       ceflib..TCefValueRef
 0001:0004FF58       ceflib..TInternalApp
 0003:00002968       ceflib.CefAcceptLanguageList
 0003:00002964       ceflib.CefBackgroundColor
 0001:000537BC       ceflib.CefBrowserHostCreate
 0003:00002978       ceflib.CefBrowserProcessHandler
 0003:00002944       ceflib.CefBrowserSubprocessPath
 0003:00002918       ceflib.CefCache
 0003:00002948       ceflib.CefCommandLineArgsDisabled
 0003:0000295C       ceflib.CefContextSafetyImplementation
 0001:000537AC       ceflib.CefGetData
 0003:00002950       ceflib.CefGetDataResource
 0003:00002954       ceflib.CefGetLocalizedString
 0003:00002961       ceflib.CefIgnoreCertificateErrors
 0003:0000298C       ceflib.CefIsMainProcess
 0003:00002934       ceflib.CefJavaScriptFlags
 0002:00000584       ceflib.ceflib
 0003:00002914       ceflib.CefLibrary
 0001:00050154       ceflib.CefLoadLib
 0001:000500A0       ceflib.CefLoadLibDefault
 0003:00002928       ceflib.CefLocale
 0003:0000293C       ceflib.CefLocalesDirPath
 0003:0000292C       ceflib.CefLogFile
 0003:00002930       ceflib.CefLogSeverity
 0003:00002942       ceflib.CefNoSandbox
 0003:00002980       ceflib.CefOnBeforeCommandLineProcessing
 0003:00002984       ceflib.CefOnRegisterCustomSchemes
 0003:00002940       ceflib.CefPackLoadingDisabled
 0003:00002960       ceflib.CefPersistSessionCookies
 0003:00002924       ceflib.CefProductVersion
 0001:000536F8       ceflib.CefRegisterSchemeHandlerFactory
 0003:0000294C       ceflib.CefRemoteDebuggingPort
 0003:0000297C       ceflib.CefRenderProcessHandler
 0003:00002974       ceflib.CefResourceBundleHandler
 0003:00002938       ceflib.CefResourcesDirPath
 0001:000535B0       ceflib.CefRunMessageLoop
 0001:000535C0       ceflib.CefShutDown
 0003:00002941       ceflib.CefSingleProcess
 0001:000535EC       ceflib.CefString
 0001:00053618       ceflib.CefString
 0001:00053638       ceflib.CefStringAlloc
 0001:000536B4       ceflib.CefStringClearAndGet
 0001:000536D0       ceflib.CefStringFreeAndGet
 0001:0005367C       ceflib.CefStringSet
 0001:000538F4       ceflib.CefTimeToDateTime
 0001:0005387C       ceflib.CefTimeToSystemTime
 0003:00002958       ceflib.CefUncaughtExceptionStackSize
 0003:00002920       ceflib.CefUserAgent
 0003:0000291C       ceflib.CefUserDataPath
 0003:00002970       ceflib.CefWindowlessRenderingEnabled
 0003:0000296C       ceflib.CefWindowsSandboxInfo
 0004:000050DC       ceflib.cef_add_cross_origin_whitelist_entry
 0004:000051EC       ceflib.cef_add_web_plugin_directory
 0004:000051E8       ceflib.cef_add_web_plugin_path
 0001:00054D0C       ceflib.cef_app_get_browser_process_handler
 0001:00054D6C       ceflib.cef_app_get_render_process_handler
 0001:00054CAC       ceflib.cef_app_get_resource_bundle_handler
 0001:00054BD8       ceflib.cef_app_on_before_command_line_processing
 0001:00054C50       ceflib.cef_app_on_register_custom_schemes
 0004:00005108       ceflib.cef_base64decode
 0004:00005104       ceflib.cef_base64encode
 0001:00053964       ceflib.cef_base_add_ref
 0001:000539B0       ceflib.cef_base_add_ref_owned
 0001:00053994       ceflib.cef_base_has_one_ref
 0001:000539C4       ceflib.cef_base_has_one_ref_owned
 0001:0005397C       ceflib.cef_base_release
 0001:000539B8       ceflib.cef_base_release_owned
 0004:00005210       ceflib.cef_begin_tracing
 0004:000051C4       ceflib.cef_binary_value_create
 0004:0000506C       ceflib.cef_browser_host_create_browser
 0004:00005070       ceflib.cef_browser_host_create_browser_sync
 0004:000050E4       ceflib.cef_clear_cross_origin_whitelist
 0004:000050D8       ceflib.cef_clear_scheme_handler_factories
 0001:000539D0       ceflib.cef_client_get_context_menu_handler
 0001:00053A34       ceflib.cef_client_get_dialog_handler
 0001:00053A98       ceflib.cef_client_get_display_handler
 0001:00053AFC       ceflib.cef_client_get_download_handler
 0001:00053B60       ceflib.cef_client_get_drag_handler
 0001:00053BC4       ceflib.cef_client_get_find_handler
 0001:00053C28       ceflib.cef_client_get_focus_handler
 0001:00053C8C       ceflib.cef_client_get_geolocation_handler
 0001:00053E80       ceflib.cef_client_get_get_render_handler
 0001:00053CF0       ceflib.cef_client_get_jsdialog_handler
 0001:00053D54       ceflib.cef_client_get_keyboard_handler
 0001:00053DB8       ceflib.cef_client_get_life_span_handler
 0001:00053E1C       ceflib.cef_client_get_load_handler
 0001:00053EE4       ceflib.cef_client_get_request_handler
 0001:00053F48       ceflib.cef_client_on_process_message_received
 0004:000051B4       ceflib.cef_command_line_create
 0004:000051B8       ceflib.cef_command_line_get_global
 0001:000551A4       ceflib.cef_completion_callback_on_complete
 0004:000051B0       ceflib.cef_cookie_manager_create_manager
 0004:000051AC       ceflib.cef_cookie_manager_get_global_manager
 0001:00054AD0       ceflib.cef_cookie_visitor_visit
 0004:000050F8       ceflib.cef_create_url
 0004:000050E8       ceflib.cef_currently_on
 0001:00055248       ceflib.cef_delete_cookie_callback_on_complete
 0004:000051C8       ceflib.cef_dictionary_value_create
 0001:000544D0       ceflib.cef_display_handler_on_address_change
 0001:00054858       ceflib.cef_display_handler_on_console_message
 0001:000545DC       ceflib.cef_display_handler_on_favicon_urlchange
 0001:000546D8       ceflib.cef_display_handler_on_fullscreen_mode_change
 0001:000547E0       ceflib.cef_display_handler_on_status_message
 0001:00054564       ceflib.cef_display_handler_on_title_change
 0001:0005473C       ceflib.cef_display_handler_on_tooltip
 0001:000548F4       ceflib.cef_dom_visitor_visite
 0004:00005074       ceflib.cef_do_message_loop_work
 0004:00005264       ceflib.cef_drag_data_create
 0004:00005084       ceflib.cef_enable_highdpi_support
 0004:00005214       ceflib.cef_end_tracing
 0004:00005088       ceflib.cef_execute_process
 0004:000051F8       ceflib.cef_force_web_plugin_shutdown
 0004:00005238       ceflib.cef_get_current_platform_thread_handle
 0004:00005234       ceflib.cef_get_current_platform_thread_id
 0004:00005100       ceflib.cef_get_extensions_for_mime_type
 0004:00005204       ceflib.cef_get_geolocation
 0004:000050FC       ceflib.cef_get_mime_type
 0004:00005228       ceflib.cef_get_min_log_level
 0004:000051D0       ceflib.cef_get_path
 0004:0000522C       ceflib.cef_get_vlog_level
 0004:0000508C       ceflib.cef_initialize
 0004:00005200       ceflib.cef_is_web_plugin_unstable
 0004:000051D4       ceflib.cef_launch_process
 0001:00054250       ceflib.cef_life_span_handler_do_close
 0001:00054134       ceflib.cef_life_span_handler_on_after_created
 0001:00054190       ceflib.cef_life_span_handler_on_before_close
 0001:00053FCC       ceflib.cef_life_span_handler_on_before_popup
 0001:000541EC       ceflib.cef_life_span_handler_run_modal
 0004:000051CC       ceflib.cef_list_value_create
 0001:000542B4       ceflib.cef_load_handler_on_loading_state_change
 0001:000543A4       ceflib.cef_load_handler_on_load_end
 0001:00054424       ceflib.cef_load_handler_on_load_error
 0001:00054328       ceflib.cef_load_handler_on_load_start
 0004:00005230       ceflib.cef_log
 0001:000551B8       ceflib.cef_navigation_entry_visitor_visit
 0004:00005218       ceflib.cef_now_from_system_trace_time
 0004:00005114       ceflib.cef_parse_csscolor
 0004:00005118       ceflib.cef_parse_json
 0004:0000511C       ceflib.cef_parse_jsonand_return_error
 0004:000050F4       ceflib.cef_parse_url
 0001:00055260       ceflib.cef_pdf_print_callback_on_pdf_print_finished
 0004:00005128       ceflib.cef_post_data_create
 0004:0000512C       ceflib.cef_post_data_element_create
 0004:000050F0       ceflib.cef_post_delayed_task
 0004:000050EC       ceflib.cef_post_task
 0004:00005260       ceflib.cef_print_settings_create
 0004:000051BC       ceflib.cef_process_message_create
 0004:0000507C       ceflib.cef_quit_message_loop
 0004:000051E4       ceflib.cef_refresh_web_plugins
 0004:000050D0       ceflib.cef_register_extension
 0004:000050D4       ceflib.cef_register_scheme_handler_factory
 0004:000051FC       ceflib.cef_register_web_plugin_crash
 0004:000050E0       ceflib.cef_remove_cross_origin_whitelist_entry
 0004:000051F0       ceflib.cef_remove_web_plugin_path
 0004:00005220       ceflib.cef_request_context_create_context
 0004:0000521C       ceflib.cef_request_context_get_global_context
 0004:00005124       ceflib.cef_request_create
 0004:00005268       ceflib.cef_resource_bundle_get_global
 0001:000550B4       ceflib.cef_resource_handler_cancel
 0001:00055074       ceflib.cef_resource_handler_can_get_cookie
 0001:00055094       ceflib.cef_resource_handler_can_set_cookie
 0001:00054F78       ceflib.cef_resource_handler_get_response_headers
 0001:00054EF4       ceflib.cef_resource_handler_process_request
 0001:00055004       ceflib.cef_resource_handler_read_response
 0004:000051D8       ceflib.cef_response_create
 0001:000550C8       ceflib.cef_run_file_dialog_callback_on_file_dialog_dismissed
 0004:00005078       ceflib.cef_run_message_loop
 0001:00054E20       ceflib.cef_scheme_handler_factory_create
 0001:0005522C       ceflib.cef_set_cookie_callback_on_complete
 0004:00005080       ceflib.cef_set_osmodal_loop
 0004:00005090       ceflib.cef_shutdown
 0004:00005134       ceflib.cef_stream_reader_create_for_data
 0004:00005130       ceflib.cef_stream_reader_create_for_file
 0004:00005138       ceflib.cef_stream_reader_create_for_handler
 0004:0000513C       ceflib.cef_stream_writer_create_for_file
 0004:00005140       ceflib.cef_stream_writer_create_for_handler
 0004:00005044       ceflib.cef_string_ascii_to_utf16
 0004:00005040       ceflib.cef_string_ascii_to_wide
 0004:00005000       ceflib.cef_string_clear
 0004:00005048       ceflib.cef_string_from_ascii
 0004:00005034       ceflib.cef_string_from_utf16
 0004:0000502C       ceflib.cef_string_from_utf8
 0004:0000503C       ceflib.cef_string_from_wide
 0004:000050B4       ceflib.cef_string_list_alloc
 0004:000050C0       ceflib.cef_string_list_append
 0004:000050C4       ceflib.cef_string_list_clear
 0004:000050CC       ceflib.cef_string_list_copy
 0004:000050C8       ceflib.cef_string_list_free
 0004:000050B8       ceflib.cef_string_list_size
 0004:000050BC       ceflib.cef_string_list_value
 0004:00005094       ceflib.cef_string_map_alloc
 0004:000050A8       ceflib.cef_string_map_append
 0004:000050AC       ceflib.cef_string_map_clear
 0004:0000509C       ceflib.cef_string_map_find
 0004:000050B0       ceflib.cef_string_map_free
 0004:000050A0       ceflib.cef_string_map_key
 0004:00005098       ceflib.cef_string_map_size
 0004:000050A4       ceflib.cef_string_map_value
 0004:00005188       ceflib.cef_string_multimap_alloc
 0004:000051A0       ceflib.cef_string_multimap_append
 0004:000051A4       ceflib.cef_string_multimap_clear
 0004:00005194       ceflib.cef_string_multimap_enumerate
 0004:00005190       ceflib.cef_string_multimap_find_count
 0004:000051A8       ceflib.cef_string_multimap_free
 0004:00005198       ceflib.cef_string_multimap_key
 0004:0000518C       ceflib.cef_string_multimap_size
 0004:0000519C       ceflib.cef_string_multimap_value
 0004:00004FF0       ceflib.cef_string_set
 0004:00005030       ceflib.cef_string_to_utf16
 0004:00005028       ceflib.cef_string_to_utf8
 0004:00005038       ceflib.cef_string_to_wide
 0004:00005058       ceflib.cef_string_userfree_alloc
 0004:00005068       ceflib.cef_string_userfree_free
 0004:00005054       ceflib.cef_string_userfree_utf16_alloc
 0004:00005064       ceflib.cef_string_userfree_utf16_free
 0004:00005050       ceflib.cef_string_userfree_utf8_alloc
 0004:00005060       ceflib.cef_string_userfree_utf8_free
 0004:0000504C       ceflib.cef_string_userfree_wide_alloc
 0004:0000505C       ceflib.cef_string_userfree_wide_free
 0004:00004FFC       ceflib.cef_string_utf16_clear
 0004:0000500C       ceflib.cef_string_utf16_cmp
 0001:00050084       ceflib.cef_string_utf16_copy
 0004:00004FEC       ceflib.cef_string_utf16_set
 0004:00005024       ceflib.cef_string_utf16_to_utf8
 0004:0000501C       ceflib.cef_string_utf16_to_wide
 0004:00004FF8       ceflib.cef_string_utf8_clear
 0004:00005008       ceflib.cef_string_utf8_cmp
 0004:00004FE8       ceflib.cef_string_utf8_set
 0004:00005020       ceflib.cef_string_utf8_to_utf16
 0004:00005014       ceflib.cef_string_utf8_to_wide
 0001:00054DCC       ceflib.cef_string_visitor_visit
 0004:00004FF4       ceflib.cef_string_wide_clear
 0004:00005004       ceflib.cef_string_wide_cmp
 0004:00004FE4       ceflib.cef_string_wide_set
 0004:00005018       ceflib.cef_string_wide_to_utf16
 0004:00005010       ceflib.cef_string_wide_to_utf8
 0004:00005208       ceflib.cef_task_runner_get_for_current_thread
 0004:0000520C       ceflib.cef_task_runner_get_for_thread
 0004:00005248       ceflib.cef_trace_counter
 0004:0000524C       ceflib.cef_trace_counter_id
 0004:00005250       ceflib.cef_trace_event_async_begin
 0004:0000525C       ceflib.cef_trace_event_async_end
 0004:00005254       ceflib.cef_trace_event_async_step_into
 0004:00005258       ceflib.cef_trace_event_async_step_past
 0004:00005240       ceflib.cef_trace_event_begin
 0004:00005244       ceflib.cef_trace_event_end
 0004:0000523C       ceflib.cef_trace_event_instant
 0004:000051F4       ceflib.cef_unregister_internal_web_plugin
 0004:00005110       ceflib.cef_uridecode
 0004:0000510C       ceflib.cef_uriencode
 0004:000051DC       ceflib.cef_urlrequest_create
 0004:00005144       ceflib.cef_v8context_get_current_context
 0004:00005148       ceflib.cef_v8context_get_entered_context
 0004:0000514C       ceflib.cef_v8context_in_context
 0004:0000517C       ceflib.cef_v8stack_trace_get_current
 0004:00005174       ceflib.cef_v8value_create_array
 0004:00005158       ceflib.cef_v8value_create_bool
 0004:00005168       ceflib.cef_v8value_create_date
 0004:00005164       ceflib.cef_v8value_create_double
 0004:00005178       ceflib.cef_v8value_create_function
 0004:0000515C       ceflib.cef_v8value_create_int
 0004:00005154       ceflib.cef_v8value_create_null
 0004:00005170       ceflib.cef_v8value_create_object
 0004:0000516C       ceflib.cef_v8value_create_string
 0004:00005160       ceflib.cef_v8value_create_uint
 0004:00005150       ceflib.cef_v8value_create_undefined
 0001:00054950       ceflib.cef_v8_accessor_get
 0001:00054A20       ceflib.cef_v8_accessor_put
 0004:000051C0       ceflib.cef_value_create
 0004:000051E0       ceflib.cef_visit_web_plugin_info
 0004:00005120       ceflib.cef_write_json
 0004:00005180       ceflib.cef_xml_reader_create
 0004:00005184       ceflib.cef_zip_reader_create
 0004:00005224       ceflib.create_context_shared
 0001:0005392C       ceflib.DateTimeToCefTime
 0001:0005B878       ceflib.Finalization
 0003:00002988       ceflib.LibHandle
 0001:000538BC       ceflib.SystemTimeToCefTime
 0001:0005007C       ceflib.SystemTimeToTzSpecificLocalTime
 0001:00058050       ceflib.TCefAppOwn.Create
 0001:000552C0       ceflib.TCefBaseOwn.CreateData
 0001:00055354       ceflib.TCefBaseOwn.Destroy
 0001:00055384       ceflib.TCefBaseOwn.Wrap
 0001:00055398       ceflib.TCefBaseRef.Create
 0001:00055480       ceflib.TCefBaseRef.Destroy
 0001:000554B4       ceflib.TCefBaseRef.UnWrap
 0001:000554FC       ceflib.TCefBaseRef.Wrap
 0001:00059D4C       ceflib.TCefBinaryValueRef.Copy
 0001:00059D6C       ceflib.TCefBinaryValueRef.GetData
 0001:00059D84       ceflib.TCefBinaryValueRef.GetSize
 0001:00059D8C       ceflib.TCefBinaryValueRef.IsEqual
 0001:00059DF8       ceflib.TCefBinaryValueRef.IsOwned
 0001:00059E0C       ceflib.TCefBinaryValueRef.IsSame
 0001:00059E78       ceflib.TCefBinaryValueRef.IsValid
 0001:00059E8C       ceflib.TCefBinaryValueRef.New
 0001:00059EB8       ceflib.TCefBinaryValueRef.UnWrap
 0001:00058D80       ceflib.TCefBrowserHostRef.AddWordToDictionary
 0001:00058DA0       ceflib.TCefBrowserHostRef.CloseBrowser
 0001:00058A10       ceflib.TCefBrowserHostRef.CloseDevTools
 0001:00058A18       ceflib.TCefBrowserHostRef.DragSourceEndedAt
 0001:00058A34       ceflib.TCefBrowserHostRef.DragSourceSystemDragEnded
 0001:00058A40       ceflib.TCefBrowserHostRef.DragTargetDragEnter
 0001:00058AB0       ceflib.TCefBrowserHostRef.DragTargetDragLeave
 0001:00058ABC       ceflib.TCefBrowserHostRef.DragTargetDragOver
 0001:00058AD4       ceflib.TCefBrowserHostRef.DragTargetDrop
 0001:00058AE0       ceflib.TCefBrowserHostRef.Find
 0001:00058B20       ceflib.TCefBrowserHostRef.GetBrowser
 0001:00058E90       ceflib.TCefBrowserHostRef.GetNavigationEntries
 0001:00058EF8       ceflib.TCefBrowserHostRef.GetNavigationEntriesProc
 0001:00058F28       ceflib.TCefBrowserHostRef.GetNsTextInputContext
 0001:00058E68       ceflib.TCefBrowserHostRef.GetOpenerWindowHandle
 0001:00058E70       ceflib.TCefBrowserHostRef.GetRequestContext
 0001:00058E54       ceflib.TCefBrowserHostRef.GetWindowHandle
 0001:00058E5C       ceflib.TCefBrowserHostRef.GetWindowlessFrameRate
 0001:00058F34       ceflib.TCefBrowserHostRef.GetZoomLevel
 0001:00058F48       ceflib.TCefBrowserHostRef.HandleKeyEventAfterTextInputClient
 0001:00058F54       ceflib.TCefBrowserHostRef.HandleKeyEventBeforeTextInputClient
 0001:00058F60       ceflib.TCefBrowserHostRef.Invalidate
 0001:00058F6C       ceflib.TCefBrowserHostRef.IsMouseCursorChangeDisabled
 0001:00058F80       ceflib.TCefBrowserHostRef.IsWindowRenderingDisabled
 0001:00058F94       ceflib.TCefBrowserHostRef.NotifyMoveOrResizeStarted
 0001:00058FA0       ceflib.TCefBrowserHostRef.NotifyScreenInfoChanged
 0001:00058B40       ceflib.TCefBrowserHostRef.Print
 0001:00058B48       ceflib.TCefBrowserHostRef.PrintToPdf
 0001:00058BC8       ceflib.TCefBrowserHostRef.PrintToPdfProc
 0001:00058C00       ceflib.TCefBrowserHostRef.ReplaceMisspelling
 0001:00058C20       ceflib.TCefBrowserHostRef.RunFileDialog
 0001:00058D3C       ceflib.TCefBrowserHostRef.RunFileDialogProc
 0001:00058DAC       ceflib.TCefBrowserHostRef.SendCaptureLostEvent
 0001:00058DB8       ceflib.TCefBrowserHostRef.SendFocusEvent
 0001:00058DC8       ceflib.TCefBrowserHostRef.SendKeyEvent
 0001:00058DD4       ceflib.TCefBrowserHostRef.SendMouseClickEvent
 0001:00058DF4       ceflib.TCefBrowserHostRef.SendMouseMoveEvent
 0001:00058E08       ceflib.TCefBrowserHostRef.SendMouseWheelEvent
 0001:00058E24       ceflib.TCefBrowserHostRef.SetFocus
 0001:00058E30       ceflib.TCefBrowserHostRef.SetMouseCursorChangeDisabled
 0001:00058E3C       ceflib.TCefBrowserHostRef.SetWindowlessFrameRate
 0001:00058E48       ceflib.TCefBrowserHostRef.SetWindowVisibility
 0001:00058FA8       ceflib.TCefBrowserHostRef.SetZoomLevel
 0001:00058FBC       ceflib.TCefBrowserHostRef.ShowDevTools
 0001:0005902C       ceflib.TCefBrowserHostRef.StartDownload
 0001:0005904C       ceflib.TCefBrowserHostRef.StopFinding
 0001:00059058       ceflib.TCefBrowserHostRef.UnWrap
 0001:000590A0       ceflib.TCefBrowserHostRef.WasHidden
 0001:000590AC       ceflib.TCefBrowserHostRef.WasResized
 0001:00055530       ceflib.TCefBrowserRef.CanGoBack
 0001:00055544       ceflib.TCefBrowserRef.CanGoForward
 0001:00055558       ceflib.TCefBrowserRef.GetFocusedFrame
 0001:000555A4       ceflib.TCefBrowserRef.GetFrame
 0001:00055578       ceflib.TCefBrowserRef.GetFrameByident
 0001:000555D8       ceflib.TCefBrowserRef.GetFrameCount
 0001:000555E0       ceflib.TCefBrowserRef.GetFrameIdentifiers
 0001:000555EC       ceflib.TCefBrowserRef.GetFrameNames
 0001:00055510       ceflib.TCefBrowserRef.GetHost
 0001:0005584C       ceflib.TCefBrowserRef.GetIdentifier
 0001:0005575C       ceflib.TCefBrowserRef.GetMainFrame
 0001:0005577C       ceflib.TCefBrowserRef.GoBack
 0001:00055784       ceflib.TCefBrowserRef.GoForward
 0001:000557A0       ceflib.TCefBrowserRef.HasDocument
 0001:0005578C       ceflib.TCefBrowserRef.IsLoading
 0001:000557B4       ceflib.TCefBrowserRef.IsPopup
 0001:000557C8       ceflib.TCefBrowserRef.IsSame
 0001:00055834       ceflib.TCefBrowserRef.Reload
 0001:0005583C       ceflib.TCefBrowserRef.ReloadIgnoreCache
 0001:000556D0       ceflib.TCefBrowserRef.SendProcessMessage
 0001:00055844       ceflib.TCefBrowserRef.StopLoad
 0001:00055854       ceflib.TCefBrowserRef.UnWrap
 0001:0005A7CC       ceflib.TCefCallbackRef.Cancel
 0001:0005A7D4       ceflib.TCefCallbackRef.Cont
 0001:0005A7DC       ceflib.TCefCallbackRef.UnWrap
 0001:00057CA0       ceflib.TCefClientOwn.Create
 0001:00057D48       ceflib.TCefClientOwn.GetContextMenuHandler
 0001:00057D54       ceflib.TCefClientOwn.GetDialogHandler
 0001:00057D60       ceflib.TCefClientOwn.GetDisplayHandler
 0001:00057D6C       ceflib.TCefClientOwn.GetDownloadHandler
 0001:00057D78       ceflib.TCefClientOwn.GetDragHandler
 0001:00057D84       ceflib.TCefClientOwn.GetFindHandler
 0001:00057D90       ceflib.TCefClientOwn.GetFocusHandler
 0001:00057D9C       ceflib.TCefClientOwn.GetGeolocationHandler
 0001:00057DA8       ceflib.TCefClientOwn.GetJsdialogHandler
 0001:00057DB4       ceflib.TCefClientOwn.GetKeyboardHandler
 0001:00057DC0       ceflib.TCefClientOwn.GetLifeSpanHandler
 0001:00057DCC       ceflib.TCefClientOwn.GetLoadHandler
 0001:00057DD8       ceflib.TCefClientOwn.GetRenderHandler
 0001:00057DE4       ceflib.TCefClientOwn.GetRequestHandler
 0001:00057DF0       ceflib.TCefClientOwn.OnProcessMessageReceived
 0001:0005924C       ceflib.TCefCommandLineRef.AppendArgument
 0001:0005926C       ceflib.TCefCommandLineRef.AppendSwitch
 0001:0005928C       ceflib.TCefCommandLineRef.AppendSwitchWithValue
 0001:000592C4       ceflib.TCefCommandLineRef.Copy
 0001:000592E4       ceflib.TCefCommandLineRef.GetArguments
 0001:000593BC       ceflib.TCefCommandLineRef.GetArgv
 0001:00059494       ceflib.TCefCommandLineRef.GetCommandLineString
 0001:000594B0       ceflib.TCefCommandLineRef.GetProgram
 0001:000594CC       ceflib.TCefCommandLineRef.GetSwitches
 0001:000595A4       ceflib.TCefCommandLineRef.GetSwitchValue
 0001:000595D0       ceflib.TCefCommandLineRef.Global
 0001:000595EC       ceflib.TCefCommandLineRef.HasArguments
 0001:00059600       ceflib.TCefCommandLineRef.HasSwitch
 0001:00059628       ceflib.TCefCommandLineRef.HasSwitches
 0001:0005963C       ceflib.TCefCommandLineRef.InitFromArgv
 0001:00059648       ceflib.TCefCommandLineRef.InitFromString
 0001:00059668       ceflib.TCefCommandLineRef.IsReadOnly
 0001:0005967C       ceflib.TCefCommandLineRef.IsValid
 0001:00059690       ceflib.TCefCommandLineRef.New
 0001:000596AC       ceflib.TCefCommandLineRef.PrependWrapper
 0001:000596CC       ceflib.TCefCommandLineRef.Reset
 0001:000596D4       ceflib.TCefCommandLineRef.SetProgram
 0001:000596F4       ceflib.TCefCommandLineRef.UnWrap
 0001:0005AAF8       ceflib.TCefCompletionCallbackOwn.Create
 0001:0005AB40       ceflib.TCefCompletionCallbackOwn.OnComplete
 0001:00058180       ceflib.TCefCookieManagerRef.DeleteCookies
 0001:00058214       ceflib.TCefCookieManagerRef.DeleteCookiesProc
 0001:0005824C       ceflib.TCefCookieManagerRef.FlushStore
 0001:000582B8       ceflib.TCefCookieManagerRef.FlushStoreProc
 0001:000582E0       ceflib.TCefCookieManagerRef.Global
 0001:00058350       ceflib.TCefCookieManagerRef.GlobalProc
 0001:000580B4       ceflib.TCefCookieManagerRef.New
 0001:00058144       ceflib.TCefCookieManagerRef.NewProc
 0001:00058380       ceflib.TCefCookieManagerRef.SetCookie
 0001:00058570       ceflib.TCefCookieManagerRef.SetCookieProc
 0001:000585D4       ceflib.TCefCookieManagerRef.SetStoragePath
 0001:00058660       ceflib.TCefCookieManagerRef.SetStoragePathProc
 0001:00058698       ceflib.TCefCookieManagerRef.SetSupportedSchemes
 0001:00058794       ceflib.TCefCookieManagerRef.SetSupportedSchemesProc
 0001:000587C4       ceflib.TCefCookieManagerRef.UnWrap
 0001:0005880C       ceflib.TCefCookieManagerRef.VisitAllCookies
 0001:00058878       ceflib.TCefCookieManagerRef.VisitAllCookiesProc
 0001:000588F8       ceflib.TCefCookieManagerRef.VisitUrlCookies
 0001:00058984       ceflib.TCefCookieManagerRef.VisitUrlCookiesProc
 0001:00057BBC       ceflib.TCefCookieVisitorOwn.Create
 0001:00057C04       ceflib.TCefCookieVisitorOwn.visit
 0001:0005B31C       ceflib.TCefDeleteCookiesCallbackOwn.Create
 0001:00059F00       ceflib.TCefDictionaryValueRef.Clear
 0001:00059F14       ceflib.TCefDictionaryValueRef.Copy
 0001:00059F3C       ceflib.TCefDictionaryValueRef.GetBinary
 0001:00059F70       ceflib.TCefDictionaryValueRef.GetBool
 0001:00059F98       ceflib.TCefDictionaryValueRef.GetDictionary
 0001:00059FC8       ceflib.TCefDictionaryValueRef.GetDouble
 0001:00059FF8       ceflib.TCefDictionaryValueRef.GetInt
 0001:0005A018       ceflib.TCefDictionaryValueRef.GetKeys
 0001:0005A108       ceflib.TCefDictionaryValueRef.GetList
 0001:0005A13C       ceflib.TCefDictionaryValueRef.GetSize
 0001:0005A144       ceflib.TCefDictionaryValueRef.GetString
 0001:0005A170       ceflib.TCefDictionaryValueRef.GetType
 0001:0005A190       ceflib.TCefDictionaryValueRef.GetValue
 0001:0005A1C4       ceflib.TCefDictionaryValueRef.HasKey
 0001:0005A1EC       ceflib.TCefDictionaryValueRef.IsEqual
 0001:0005A258       ceflib.TCefDictionaryValueRef.isOwned
 0001:0005A26C       ceflib.TCefDictionaryValueRef.IsReadOnly
 0001:0005A280       ceflib.TCefDictionaryValueRef.IsSame
 0001:0005A2EC       ceflib.TCefDictionaryValueRef.IsValid
 0001:0005A300       ceflib.TCefDictionaryValueRef.New
 0001:0005A31C       ceflib.TCefDictionaryValueRef.Remove
 0001:0005A344       ceflib.TCefDictionaryValueRef.SetBinary
 0001:0005A3C8       ceflib.TCefDictionaryValueRef.SetBool
 0001:0005A3FC       ceflib.TCefDictionaryValueRef.SetDictionary
 0001:0005A480       ceflib.TCefDictionaryValueRef.SetDouble
 0001:0005A4B4       ceflib.TCefDictionaryValueRef.SetInt
 0001:0005A4E4       ceflib.TCefDictionaryValueRef.SetList
 0001:0005A56C       ceflib.TCefDictionaryValueRef.SetNull
 0001:0005A594       ceflib.TCefDictionaryValueRef.SetString
 0001:0005A5D4       ceflib.TCefDictionaryValueRef.SetValue
 0001:0005A658       ceflib.TCefDictionaryValueRef.UnWrap
 0001:00057EF4       ceflib.TCefDisplayHandlerOwn.Create
 0001:00057F64       ceflib.TCefDisplayHandlerOwn.OnAddressChange
 0001:00057F6C       ceflib.TCefDisplayHandlerOwn.OnConsoleMessage
 0001:00057F78       ceflib.TCefDisplayHandlerOwn.OnFaviconUrlChange
 0001:00057F7C       ceflib.TCefDisplayHandlerOwn.OnFullScreenModeChange
 0001:00057F80       ceflib.TCefDisplayHandlerOwn.OnStatusMessage
 0001:00057F84       ceflib.TCefDisplayHandlerOwn.OnTitleChange
 0001:00057F88       ceflib.TCefDisplayHandlerOwn.OnTooltip
 0001:000573E8       ceflib.TCefDomDocumentRef.GetBaseUrl
 0001:00057404       ceflib.TCefDomDocumentRef.GetBody
 0001:00057424       ceflib.TCefDomDocumentRef.GetCompleteUrl
 0001:00057450       ceflib.TCefDomDocumentRef.GetDocument
 0001:00057470       ceflib.TCefDomDocumentRef.GetElementById
 0001:000574A4       ceflib.TCefDomDocumentRef.GetFocusedNode
 0001:000574C4       ceflib.TCefDomDocumentRef.GetHead
 0001:000574E4       ceflib.TCefDomDocumentRef.GetSelectionAsMarkup
 0001:00057500       ceflib.TCefDomDocumentRef.GetSelectionAsText
 0001:0005751C       ceflib.TCefDomDocumentRef.GetSelectionEndOffset
 0001:00057524       ceflib.TCefDomDocumentRef.GetSelectionStartOffset
 0001:0005752C       ceflib.TCefDomDocumentRef.GetTitle
 0001:00057548       ceflib.TCefDomDocumentRef.GetType
 0001:00057558       ceflib.TCefDomDocumentRef.HasSelection
 0001:0005756C       ceflib.TCefDomDocumentRef.UnWrap
 0001:000575B4       ceflib.TCefDomNodeRef.GetAsMarkup
 0001:000575D0       ceflib.TCefDomNodeRef.GetDocument
 0001:000575F0       ceflib.TCefDomNodeRef.GetElementAttribute
 0001:0005761C       ceflib.TCefDomNodeRef.GetElementAttributes
 0001:00057638       ceflib.TCefDomNodeRef.GetElementInnerText
 0001:00057654       ceflib.TCefDomNodeRef.GetElementTagName
 0001:00057670       ceflib.TCefDomNodeRef.GetFirstChild
 0001:00057690       ceflib.TCefDomNodeRef.GetFormControlElementType
 0001:000576AC       ceflib.TCefDomNodeRef.GetLastChild
 0001:000576CC       ceflib.TCefDomNodeRef.GetName
 0001:000576E8       ceflib.TCefDomNodeRef.GetNextSibling
 0001:00057708       ceflib.TCefDomNodeRef.GetParent
 0001:00057728       ceflib.TCefDomNodeRef.GetPreviousSibling
 0001:00057748       ceflib.TCefDomNodeRef.GetType
 0001:00057758       ceflib.TCefDomNodeRef.GetValue
 0001:00057774       ceflib.TCefDomNodeRef.HasChildren
 0001:00057788       ceflib.TCefDomNodeRef.HasElementAttribute
 0001:000577B0       ceflib.TCefDomNodeRef.HasElementAttributes
 0001:000577C4       ceflib.TCefDomNodeRef.IsEditable
 0001:000577D8       ceflib.TCefDomNodeRef.IsElement
 0001:000577EC       ceflib.TCefDomNodeRef.IsFormControlElement
 0001:00057800       ceflib.TCefDomNodeRef.IsSame
 0001:0005786C       ceflib.TCefDomNodeRef.IsText
 0001:00057880       ceflib.TCefDomNodeRef.SetElementAttribute
 0001:000578C0       ceflib.TCefDomNodeRef.SetValue
 0001:000578E8       ceflib.TCefDomNodeRef.UnWrap
 0001:0005734C       ceflib.TCefDomVisitorOwn.Create
 0001:00057394       ceflib.TCefDomVisitorOwn.visit
 0001:0005AB44       ceflib.TCefFastCompletionCallback.Create
 0001:0005AB88       ceflib.TCefFastCompletionCallback.OnComplete
 0001:00057C10       ceflib.TCefFastCookieVisitor.Create
 0001:00057C54       ceflib.TCefFastCookieVisitor.visit
 0001:0005B364       ceflib.TCefFastDeleteCookiesCallback.Create
 0001:0005B3A8       ceflib.TCefFastDeleteCookiesCallback.OnComplete
 0001:00057398       ceflib.TCefFastDomVisitor.Create
 0001:000573DC       ceflib.TCefFastDomVisitor.visit
 0001:0005B224       ceflib.TCefFastNavigationEntryVisitor.Create
 0001:0005B268       ceflib.TCefFastNavigationEntryVisitor.Visit
 0001:0005B828       ceflib.TCefFastPdfPrintCallback.Create
 0001:0005B86C       ceflib.TCefFastPdfPrintCallback.OnPdfPrintFinished
 0001:0005A87C       ceflib.TCefFastRunFileDialogCallback.Create
 0001:0005A870       ceflib.TCefFastRunFileDialogCallback.OnFileDialogDismissed
 0001:0005B2CC       ceflib.TCefFastSetCookieCallback.Create
 0001:0005B310       ceflib.TCefFastSetCookieCallback.OnComplete
 0001:000591FC       ceflib.TCefFastStringVisitor.Create
 0001:00059240       ceflib.TCefFastStringVisitor.Visit
 0001:00057B08       ceflib.TCefFastV8Accessor.Create
 0001:00057B54       ceflib.TCefFastV8Accessor.Get
 0001:00057B98       ceflib.TCefFastV8Accessor.Put
 0001:000558B0       ceflib.TCefFrameRef.Copy
 0001:000558B8       ceflib.TCefFrameRef.Cut
 0001:000558C0       ceflib.TCefFrameRef.Del
 0001:000558C8       ceflib.TCefFrameRef.ExecuteJavaScript
 0001:00055908       ceflib.TCefFrameRef.GetBrowser
 0001:00055928       ceflib.TCefFrameRef.GetIdentifier
 0001:00055944       ceflib.TCefFrameRef.GetName
 0001:00055960       ceflib.TCefFrameRef.GetParent
 0001:00055980       ceflib.TCefFrameRef.GetSource
 0001:000559E0       ceflib.TCefFrameRef.GetSourceProc
 0001:00055A08       ceflib.TCefFrameRef.GetText
 0001:00055A68       ceflib.TCefFrameRef.GetTextProc
 0001:00055A90       ceflib.TCefFrameRef.GetUrl
 0001:00055AAC       ceflib.TCefFrameRef.GetV8Context
 0001:00055ACC       ceflib.TCefFrameRef.IsFocused
 0001:00055AE0       ceflib.TCefFrameRef.IsMain
 0001:0005589C       ceflib.TCefFrameRef.IsValid
 0001:00055AF4       ceflib.TCefFrameRef.LoadRequest
 0001:00055B54       ceflib.TCefFrameRef.LoadString
 0001:00055B8C       ceflib.TCefFrameRef.LoadUrl
 0001:00055BAC       ceflib.TCefFrameRef.Paste
 0001:00055BB4       ceflib.TCefFrameRef.Redo
 0001:00055BBC       ceflib.TCefFrameRef.SelectAll
 0001:00055BC4       ceflib.TCefFrameRef.Undo
 0001:00055CB0       ceflib.TCefFrameRef.UnWrap
 0001:00055BCC       ceflib.TCefFrameRef.ViewSource
 0001:00055BD4       ceflib.TCefFrameRef.VisitDom
 0001:00055C34       ceflib.TCefFrameRef.VisitDomProc
 0001:00057DFC       ceflib.TCefLifeSpanHandlerOwn.Create
 0001:00057E74       ceflib.TCefLifeSpanHandlerOwn.DoClose
 0001:00057E60       ceflib.TCefLifeSpanHandlerOwn.OnAfterCreated
 0001:00057E64       ceflib.TCefLifeSpanHandlerOwn.OnBeforeClose
 0001:00057E68       ceflib.TCefLifeSpanHandlerOwn.OnBeforePopup
 0001:00057E78       ceflib.TCefLifeSpanHandlerOwn.RunModal
 0001:000597C4       ceflib.TCefListValueRef.Clear
 0001:000597D8       ceflib.TCefListValueRef.Copy
 0001:00059814       ceflib.TCefListValueRef.GetBinary
 0001:0005983C       ceflib.TCefListValueRef.GetBool
 0001:00059854       ceflib.TCefListValueRef.GetDictionary
 0001:0005987C       ceflib.TCefListValueRef.GetDouble
 0001:00059894       ceflib.TCefListValueRef.GetInt
 0001:000598A0       ceflib.TCefListValueRef.GetList
 0001:000598C4       ceflib.TCefListValueRef.GetSize
 0001:000598CC       ceflib.TCefListValueRef.GetString
 0001:000598EC       ceflib.TCefListValueRef.GetType
 0001:00059900       ceflib.TCefListValueRef.GetValue
 0001:00059928       ceflib.TCefListValueRef.IsEqual
 0001:00059994       ceflib.TCefListValueRef.IsOwned
 0001:000599A8       ceflib.TCefListValueRef.IsReadOnly
 0001:000599BC       ceflib.TCefListValueRef.IsSame
 0001:00059A28       ceflib.TCefListValueRef.IsValid
 0001:000597F8       ceflib.TCefListValueRef.New
 0001:00059A3C       ceflib.TCefListValueRef.Remove
 0001:00059A54       ceflib.TCefListValueRef.SetBinary
 0001:00059AD0       ceflib.TCefListValueRef.SetBool
 0001:00059AF0       ceflib.TCefListValueRef.SetDictionary
 0001:00059B6C       ceflib.TCefListValueRef.SetDouble
 0001:00059B90       ceflib.TCefListValueRef.SetInt
 0001:00059BB0       ceflib.TCefListValueRef.SetList
 0001:00059C2C       ceflib.TCefListValueRef.SetNull
 0001:00059C44       ceflib.TCefListValueRef.SetSize
 0001:00059C5C       ceflib.TCefListValueRef.SetString
 0001:00059C88       ceflib.TCefListValueRef.SetValue
 0001:00059D04       ceflib.TCefListValueRef.UnWrap
 0001:00057E7C       ceflib.TCefLoadHandlerOwn.Create
 0001:00057ED8       ceflib.TCefLoadHandlerOwn.OnLoadEnd
 0001:00057EE0       ceflib.TCefLoadHandlerOwn.OnLoadError
 0001:00057EE8       ceflib.TCefLoadHandlerOwn.OnLoadingStateChange
 0001:00057EF0       ceflib.TCefLoadHandlerOwn.OnLoadStart
 0001:0005B14C       ceflib.TCefNavigationEntryRef.GetCompletionTime
 0001:0005B0DC       ceflib.TCefNavigationEntryRef.GetDisplayUrl
 0001:0005B178       ceflib.TCefNavigationEntryRef.GetHttpStatusCode
 0001:0005B0F8       ceflib.TCefNavigationEntryRef.GetOriginalUrl
 0001:0005B114       ceflib.TCefNavigationEntryRef.GetTitle
 0001:0005B130       ceflib.TCefNavigationEntryRef.GetTransitionType
 0001:0005B0C0       ceflib.TCefNavigationEntryRef.GetUrl
 0001:0005B138       ceflib.TCefNavigationEntryRef.HasPostData
 0001:0005B0AC       ceflib.TCefNavigationEntryRef.IsValid
 0001:0005B180       ceflib.TCefNavigationEntryRef.UnWrap
 0001:0005B1C8       ceflib.TCefNavigationEntryVisitorOwn.Create
 0001:0005B218       ceflib.TCefNavigationEntryVisitorOwn.Visit
 0001:0005B7D8       ceflib.TCefPdfPrintCallbackOwn.Create
 0001:00055F48       ceflib.TCefPostDataElementRef.GetBytes
 0001:00055F54       ceflib.TCefPostDataElementRef.GetBytesCount
 0001:00055F5C       ceflib.TCefPostDataElementRef.GetFile
 0001:00055F78       ceflib.TCefPostDataElementRef.GetType
 0001:00055F34       ceflib.TCefPostDataElementRef.IsReadOnly
 0001:00055F88       ceflib.TCefPostDataElementRef.New
 0001:00055FA4       ceflib.TCefPostDataElementRef.SetToBytes
 0001:00055FB0       ceflib.TCefPostDataElementRef.SetToEmpty
 0001:00055FB8       ceflib.TCefPostDataElementRef.SetToFile
 0001:00055FD8       ceflib.TCefPostDataElementRef.UnWrap
 0001:00055D0C       ceflib.TCefPostDataRef.AddElement
 0001:00055D70       ceflib.TCefPostDataRef.GetCount
 0001:00055D78       ceflib.TCefPostDataRef.GetElements
 0001:00055CF8       ceflib.TCefPostDataRef.IsReadOnly
 0001:00055E64       ceflib.TCefPostDataRef.New
 0001:00055E80       ceflib.TCefPostDataRef.RemoveElement
 0001:00055EE4       ceflib.TCefPostDataRef.RemoveElements
 0001:00055EEC       ceflib.TCefPostDataRef.UnWrap
 0001:000590B4       ceflib.TCefProcessMessageRef.Copy
 0001:000590D4       ceflib.TCefProcessMessageRef.GetArgumentList
 0001:000590F4       ceflib.TCefProcessMessageRef.GetName
 0001:00059110       ceflib.TCefProcessMessageRef.IsReadOnly
 0001:00059124       ceflib.TCefProcessMessageRef.IsValid
 0001:00059138       ceflib.TCefProcessMessageRef.New
 0001:00059168       ceflib.TCefProcessMessageRef.UnWrap
 0001:0005AF9C       ceflib.TCefRequestContextHandlerRef.GetCookieManager
 0001:0005AFBC       ceflib.TCefRequestContextHandlerRef.OnBeforePluginLoad
 0001:0005B064       ceflib.TCefRequestContextHandlerRef.UnWrap
 0001:0005AB94       ceflib.TCefRequestContextRef.ClearSchemeHandlerFactories
 0001:0005ABA8       ceflib.TCefRequestContextRef.GetCachePath
 0001:0005ABC4       ceflib.TCefRequestContextRef.GetDefaultCookieManager
 0001:0005AC40       ceflib.TCefRequestContextRef.GetDefaultCookieManagerProc
 0001:0005AC70       ceflib.TCefRequestContextRef.GetHandler
 0001:0005AC90       ceflib.TCefRequestContextRef.Global
 0001:0005ACAC       ceflib.TCefRequestContextRef.IsGlobal
 0001:0005ACC0       ceflib.TCefRequestContextRef.IsSame
 0001:0005AD2C       ceflib.TCefRequestContextRef.IsSharingWith
 0001:0005AD98       ceflib.TCefRequestContextRef.New
 0001:0005AE10       ceflib.TCefRequestContextRef.PurgePluginListCache
 0001:0005AE1C       ceflib.TCefRequestContextRef.RegisterSchemeHandlerFactory
 0001:0005AEB0       ceflib.TCefRequestContextRef.Shared
 0001:0005AF54       ceflib.TCefRequestContextRef.UnWrap
 0001:00056034       ceflib.TCefRequestRef.Assign
 0001:000560C8       ceflib.TCefRequestRef.GetFirstPartyForCookies
 0001:000560E4       ceflib.TCefRequestRef.GetFlags
 0001:000560F8       ceflib.TCefRequestRef.GetHeaderMap
 0001:00056114       ceflib.TCefRequestRef.GetIdentifier
 0001:00056130       ceflib.TCefRequestRef.GetMethod
 0001:0005614C       ceflib.TCefRequestRef.GetPostData
 0001:0005616C       ceflib.TCefRequestRef.GetResourceType
 0001:0005617C       ceflib.TCefRequestRef.GetTransitionType
 0001:00056184       ceflib.TCefRequestRef.GetUrl
 0001:00056020       ceflib.TCefRequestRef.IsReadOnly
 0001:000561A0       ceflib.TCefRequestRef.New
 0001:000561BC       ceflib.TCefRequestRef.SetFirstPartyForCookies
 0001:000561DC       ceflib.TCefRequestRef.SetFlags
 0001:000561F0       ceflib.TCefRequestRef.SetHeaderMap
 0001:0005620C       ceflib.TCefRequestRef.SetMethod
 0001:0005622C       ceflib.TCefRequestRef.SetPostData
 0001:00056290       ceflib.TCefRequestRef.SetUrl
 0001:000562B0       ceflib.TCefRequestRef.UnWrap
 0001:0005A6A0       ceflib.TCefResourceHandlerOwn.Cancel
 0001:0005A6A4       ceflib.TCefResourceHandlerOwn.CanGetCookie
 0001:0005A6A8       ceflib.TCefResourceHandlerOwn.CanSetCookie
 0001:0005A6AC       ceflib.TCefResourceHandlerOwn.Create
 0001:0005A71C       ceflib.TCefResourceHandlerOwn.GetResponseHeaders
 0001:0005A730       ceflib.TCefResourceHandlerOwn.ProcessRequest
 0001:0005A734       ceflib.TCefResourceHandlerOwn.ReadResponse
 0001:0005794C       ceflib.TCefResponseRef.GetHeader
 0001:00057978       ceflib.TCefResponseRef.GetHeaderMap
 0001:00057994       ceflib.TCefResponseRef.GetMimeType
 0001:000579B0       ceflib.TCefResponseRef.GetStatus
 0001:000579B8       ceflib.TCefResponseRef.GetStatusText
 0001:000579D4       ceflib.TCefResponseRef.IsReadOnly
 0001:00057930       ceflib.TCefResponseRef.New
 0001:000579E8       ceflib.TCefResponseRef.SetHeaderMap
 0001:00057A04       ceflib.TCefResponseRef.SetMimeType
 0001:00057A24       ceflib.TCefResponseRef.SetStatus
 0001:00057A30       ceflib.TCefResponseRef.SetStatusText
 0001:00057A50       ceflib.TCefResponseRef.UnWrap
 0001:0005A824       ceflib.TCefRunFileDialogCallbackOwn.Create
 0001:0005A86C       ceflib.TCefRunFileDialogCallbackOwn.OnFileDialogDismissed
 0001:0005A740       ceflib.TCefSchemeHandlerFactoryOwn.Create
 0001:0005A794       ceflib.TCefSchemeHandlerFactoryOwn.New
 0001:0005973C       ceflib.TCefSchemeRegistrarRef.AddCustomScheme
 0001:0005977C       ceflib.TCefSchemeRegistrarRef.UnWrap
 0001:0005B284       ceflib.TCefSetCookieCallbackOwn.Create
 0001:000591B0       ceflib.TCefStringVisitorOwn.Create
 0001:000591F8       ceflib.TCefStringVisitorOwn.Visit
 0001:0005A8F8       ceflib.TCefTaskRunnerRef.BelongsToCurrentThread
 0001:0005A90C       ceflib.TCefTaskRunnerRef.BelongsToThread
 0001:0005A924       ceflib.TCefTaskRunnerRef.GetForCurrentThread
 0001:0005A940       ceflib.TCefTaskRunnerRef.GetForThread
 0001:0005A960       ceflib.TCefTaskRunnerRef.IsSame
 0001:0005A9CC       ceflib.TCefTaskRunnerRef.PostDelayedTask
 0001:0005AA40       ceflib.TCefTaskRunnerRef.PostTask
 0001:0005AAB0       ceflib.TCefTaskRunnerRef.UnWrap
 0001:00057A98       ceflib.TCefV8AccessorOwn.Create
 0001:00057AE8       ceflib.TCefV8AccessorOwn.Get
 0001:00057AFC       ceflib.TCefV8AccessorOwn.Put
 0001:000570EC       ceflib.TCefv8ContextRef.Current
 0001:00057108       ceflib.TCefv8ContextRef.Enter
 0001:0005711C       ceflib.TCefv8ContextRef.Entered
 0001:0005724C       ceflib.TCefv8ContextRef.Eval
 0001:00057138       ceflib.TCefv8ContextRef.Exit
 0001:0005714C       ceflib.TCefv8ContextRef.GetBrowser
 0001:0005716C       ceflib.TCefv8ContextRef.GetFrame
 0001:0005718C       ceflib.TCefv8ContextRef.GetGlobal
 0001:000571AC       ceflib.TCefv8ContextRef.GetTaskRunner
 0001:000571CC       ceflib.TCefv8ContextRef.IsSame
 0001:00057238       ceflib.TCefv8ContextRef.IsValid
 0001:00057304       ceflib.TCefv8ContextRef.UnWrap
 0001:00057F8C       ceflib.TCefV8ExceptionRef.GetEndColumn
 0001:00057F94       ceflib.TCefV8ExceptionRef.GetEndPosition
 0001:00057F9C       ceflib.TCefV8ExceptionRef.GetLineNumber
 0001:00057FA4       ceflib.TCefV8ExceptionRef.GetMessage
 0001:00057FC0       ceflib.TCefV8ExceptionRef.GetScriptResourceName
 0001:00057FDC       ceflib.TCefV8ExceptionRef.GetSourceLine
 0001:00057FF8       ceflib.TCefV8ExceptionRef.GetStartColumn
 0001:00058000       ceflib.TCefV8ExceptionRef.GetStartPosition
 0001:00058008       ceflib.TCefV8ExceptionRef.UnWrap
 0001:00056F2C       ceflib.TCefv8HandlerRef.Execute
 0001:000570A4       ceflib.TCefv8HandlerRef.UnWrap
 0001:000562F8       ceflib.TCefv8ValueRef.AdjustExternallyAllocatedMemory
 0001:00056B08       ceflib.TCefv8ValueRef.ClearException
 0001:000565D4       ceflib.TCefv8ValueRef.DeleteValueByIndex
 0001:000565F0       ceflib.TCefv8ValueRef.DeleteValueByKey
 0001:00056618       ceflib.TCefv8ValueRef.ExecuteFunction
 0001:00056734       ceflib.TCefv8ValueRef.ExecuteFunctionWithContext
 0001:00056874       ceflib.TCefv8ValueRef.GetArrayLength
 0001:00056880       ceflib.TCefv8ValueRef.GetBoolValue
 0001:00056894       ceflib.TCefv8ValueRef.GetDateValue
 0001:000568C0       ceflib.TCefv8ValueRef.GetDoubleValue
 0001:00056AE8       ceflib.TCefv8ValueRef.GetException
 0001:000568D4       ceflib.TCefv8ValueRef.GetExternallyAllocatedMemory
 0001:000568E0       ceflib.TCefv8ValueRef.GetFunctionHandler
 0001:00056904       ceflib.TCefv8ValueRef.GetFunctionName
 0001:00056920       ceflib.TCefv8ValueRef.GetIntValue
 0001:00056930       ceflib.TCefv8ValueRef.GetKeys
 0001:00056A90       ceflib.TCefv8ValueRef.GetStringValue
 0001:00056928       ceflib.TCefv8ValueRef.GetUIntValue
 0001:00056B4C       ceflib.TCefv8ValueRef.GetUserData
 0001:00056B70       ceflib.TCefv8ValueRef.GetValueByIndex
 0001:00056B98       ceflib.TCefv8ValueRef.GetValueByKey
 0001:00056AD4       ceflib.TCefv8ValueRef.HasException
 0001:00056BD0       ceflib.TCefv8ValueRef.HasValueByIndex
 0001:00056BE8       ceflib.TCefv8ValueRef.HasValueByKey
 0001:00056C10       ceflib.TCefv8ValueRef.IsArray
 0001:00056C24       ceflib.TCefv8ValueRef.IsBool
 0001:00056C38       ceflib.TCefv8ValueRef.IsDate
 0001:00056C4C       ceflib.TCefv8ValueRef.IsDouble
 0001:00056C60       ceflib.TCefv8ValueRef.IsFunction
 0001:00056C74       ceflib.TCefv8ValueRef.IsInt
 0001:00056C9C       ceflib.TCefv8ValueRef.IsNull
 0001:00056CB0       ceflib.TCefv8ValueRef.IsObject
 0001:00056CC4       ceflib.TCefv8ValueRef.IsSame
 0001:00056D30       ceflib.TCefv8ValueRef.IsString
 0001:00056C88       ceflib.TCefv8ValueRef.IsUInt
 0001:00056D44       ceflib.TCefv8ValueRef.IsUndefined
 0001:00056AAC       ceflib.TCefv8ValueRef.IsUserCreated
 0001:00056AC0       ceflib.TCefv8ValueRef.IsValid
 0001:00056304       ceflib.TCefv8ValueRef.NewArray
 0001:00056324       ceflib.TCefv8ValueRef.NewBool
 0001:00056348       ceflib.TCefv8ValueRef.NewDate
 0001:00056380       ceflib.TCefv8ValueRef.NewDouble
 0001:000563AC       ceflib.TCefv8ValueRef.NewFunction
 0001:00056438       ceflib.TCefv8ValueRef.NewInt
 0001:00056478       ceflib.TCefv8ValueRef.NewNull
 0001:00056494       ceflib.TCefv8ValueRef.NewObject
 0001:00056504       ceflib.TCefv8ValueRef.NewObjectProc
 0001:00056588       ceflib.TCefv8ValueRef.NewString
 0001:00056458       ceflib.TCefv8ValueRef.NewUInt
 0001:000565B8       ceflib.TCefv8ValueRef.NewUndefined
 0001:00056B30       ceflib.TCefv8ValueRef.SetRethrowExceptions
 0001:00056A20       ceflib.TCefv8ValueRef.SetUserData
 0001:00056D58       ceflib.TCefv8ValueRef.SetValueByAccessor
 0001:00056D9C       ceflib.TCefv8ValueRef.SetValueByIndex
 0001:00056E1C       ceflib.TCefv8ValueRef.SetValueByKey
 0001:00056EAC       ceflib.TCefv8ValueRef.UnWrap
 0001:00056B1C       ceflib.TCefv8ValueRef.WillRethrowExceptions
 0001:0005B3B4       ceflib.TCefValueRef.Copy
 0001:0005B3D4       ceflib.TCefValueRef.GetBinary
 0001:0005B3F4       ceflib.TCefValueRef.GetBool
 0001:0005B408       ceflib.TCefValueRef.GetDictionary
 0001:0005B428       ceflib.TCefValueRef.GetDouble
 0001:0005B43C       ceflib.TCefValueRef.GetInt
 0001:0005B444       ceflib.TCefValueRef.GetList
 0001:0005B464       ceflib.TCefValueRef.GetString
 0001:0005B480       ceflib.TCefValueRef.GetType
 0001:0005B490       ceflib.TCefValueRef.IsEqual
 0001:0005B4FC       ceflib.TCefValueRef.IsOwned
 0001:0005B510       ceflib.TCefValueRef.IsReadOnly
 0001:0005B524       ceflib.TCefValueRef.IsSame
 0001:0005B590       ceflib.TCefValueRef.IsValid
 0001:0005B5A4       ceflib.TCefValueRef.New
 0001:0005B5C0       ceflib.TCefValueRef.SetBinary
 0001:0005B62C       ceflib.TCefValueRef.SetBool
 0001:0005B644       ceflib.TCefValueRef.SetDictionary
 0001:0005B6B0       ceflib.TCefValueRef.SetDouble
 0001:0005B6D0       ceflib.TCefValueRef.SetInt
 0001:0005B6E8       ceflib.TCefValueRef.SetList
 0001:0005B754       ceflib.TCefValueRef.SetNull
 0001:0005B768       ceflib.TCefValueRef.SetString
 0001:0005B790       ceflib.TCefValueRef.UnWrap
 0001:0005004C       ceflib.TInternalApp.GetBrowserProcessHandler
 0001:00050060       ceflib.TInternalApp.GetRenderProcessHandler
 0001:00050038       ceflib.TInternalApp.GetResourceBundleHandler
 0001:0005000C       ceflib.TInternalApp.OnBeforeCommandLineProcessing
 0001:00050024       ceflib.TInternalApp.OnRegisterCustomSchemes
 0001:00050074       ceflib.TzSpecificLocalTimeToSystemTime
 0001:00009198       SysInit...
 0001:00009178       SysInit...
 0003:00000C2C       SysInit...
 0001:00009270       SysInit...
 0001:00009168       SysInit...
 0001:00009260       SysInit...
 0001:0000923C       SysInit...
 0001:000091A8       SysInit...
 0001:000091B8       SysInit...
 0001:000091CC       SysInit...
 0001:00009188       SysInit...
 0001:000091FC       SysInit...
 0001:00009214       SysInit...
 0004:00002C58       SysInit..1
 0001:00008BC0       SysInit.@DelayLoadHelper2
 0001:00008C20       SysInit.@GetTls
 0001:00008C6C       SysInit.@InitExe
 0001:00008CB8       SysInit.@_delayLoadHelper2
 0001:00008F98       SysInit.@_FUnloadDelayLoadedDLL2
 0001:000090A8       SysInit.@_HrLoadAllImportsForDll
 0004:00002C54       SysInit.@_pfnDliFailureHook2
 0004:00002C50       SysInit.@_pfnDliNotifyHook2
 0001:00008BC8       SysInit.AllocTlsBuffer
 0003:00000C0C       SysInit.DelayLoadHelper
 0001:00009280       SysInit.Finalization
 0001:00008B70       SysInit.FreeLibrary
 0001:00008BA0       SysInit.GetLastError
 0001:00008B78       SysInit.GetModuleHandle
 0001:00008BB8       SysInit.GetProcAddress
 0001:00008BD4       SysInit.GetTlsSize
 0004:00002C48       SysInit.HInstance
 0001:00008C60       SysInit.InitializeModule
 0001:00008BDC       SysInit.InitThreadTLS
 0001:00008B60       SysInit.InterlockedExchange
 0001:00008BA8       SysInit.LoadLibraryA
 0001:00008B80       SysInit.LocalAlloc
 0001:00008B88       SysInit.LocalFree
 0003:00000C10       SysInit.Module
 0004:00002C45       SysInit.ModuleIsCpp
 0004:00002C44       SysInit.ModuleIsLib
 0003:00000C08       SysInit.PtrToNil
 0001:00008BB0       SysInit.RaiseException
 0001:00009160       SysInit.ShutdownDelayHelp2
 0002:000000B4       SysInit.SysInit
 0004:00002C5C       SysInit.tlsBuffer
 0001:00008B90       SysInit.TlsGetValue
 0003:00000C04       SysInit.TlsIndex
 0005:00000014       SysInit.TlsLast
 0001:00008B98       SysInit.TlsSetValue
 0004:FFF96000       SysInit.__ImageBase
 0001:00001850       System.$thunk_GetLogicalProcessorInformation
 0004:00000904       System..8
 0001:00000DC8       System..TInterfacedObject
 0001:000004D8       System..TObject
 0001:00003720       System.@AbstractError
 0001:000042D8       System.@AfterConstruction
 0001:00003F68       System.@AsClass
 0001:000053DC       System.@Assert
 0001:00005A50       System.@AStrCmp
 0001:00004328       System.@BeforeDestruction
 0001:00003AD8       System.@BoundErr
 0001:00003FE4       System.@CallDynaInst
 0001:00004280       System.@ClassCreate
 0001:000042D0       System.@ClassDestroy
 0001:00003798       System.@Close
 0001:00005ACC       System.@Copy
 0001:000068C8       System.@CopyArray
 0001:00006788       System.@CopyRecord
 0001:00006A08       System.@DispCallByIDError
 0001:000069E0       System.@Dispose
 0001:00004D50       System.@DoneExcept
 0001:0000702C       System.@DynArrayAddRef
 0001:00007004       System.@DynArrayAsg
 0001:00006FC8       System.@DynArrayClear
 0001:00006E10       System.@DynArrayHigh
 0001:00006E08       System.@DynArrayLength
 0001:00006FBC       System.@DynArraySetLength
 0001:00004E38       System.@ExceptionHandler
 0001:000037F0       System.@FillChar
 0001:00006764       System.@Finalize
 0001:00006654       System.@FinalizeArray
 0001:00006604       System.@FinalizeRecord
 0001:00003ACC       System.@FpuInit
 0001:00003414       System.@FreeMem
 0001:000033F8       System.@GetMem
 0001:000053B4       System.@Halt
 0001:00005288       System.@Halt0
 0001:000048F8       System.@HandleAnyException
 0001:00004BAC       System.@HandleFinally
 0001:00004C54       System.@HandleFinallyInternal
 0001:00004A24       System.@HandleOnException
 0001:0000656C       System.@InitializeArray
 0001:00003AB0       System.@InitializeControlWord
 0001:00006538       System.@InitializeRecord
 0001:00005138       System.@InitImports
 0001:000050F4       System.@InitResStringImports
 0001:00008558       System.@IntfAddRef
 0001:00003F98       System.@IntfAsClass
 0001:00008528       System.@IntfCast
 0001:000084E4       System.@IntfClear
 0001:000084FC       System.@IntfCopy
 0001:00003AE0       System.@IntOver
 0001:00003F44       System.@IsClass
 0001:00005554       System.@LStrArrayClr
 0001:00005910       System.@LStrAsg
 0001:000054E8       System.@LStrClr
 0001:00005B10       System.@LStrFromPChar
 0001:00005670       System.@LStrFromPCharLen
 0001:00005B44       System.@LStrFromPWChar
 0001:000057F0       System.@LStrFromPWCharLen
 0001:00005B84       System.@LStrFromString
 0001:00005C9C       System.@LStrFromUStr
 0001:00005B98       System.@LStrFromWStr
 0001:00005958       System.@LStrLAsg
 0001:00005C24       System.@LStrSetLength
 0001:00005C0C       System.@LStrToPChar
 0001:00005BB0       System.@LStrToString
 0001:00005458       System.@NewAnsiString
 0001:00005418       System.@NewUnicodeString
 0001:000054AC       System.@NewWideString
 0001:00005990       System.@PCharLen
 0001:000039C8       System.@Pow10
 0001:00005AC0       System.@PStrCpy
 0001:000059A4       System.@PWCharLen
 0001:00004CFC       System.@RaiseAgain
 0001:00004C8C       System.@RaiseExcept
 0001:0000342C       System.@ReallocMem
 0001:000036F0       System.@ROUND
 0001:000053C0       System.@RunError
 0001:00003990       System.@SetElem
 0001:000039B4       System.@SetUnion
 0001:00004FF4       System.@StartExe
 0001:00001838       System.@strlen
 0001:000036FC       System.@TRUNC
 0001:00004D80       System.@TryFinallyExit
 0001:00005A48       System.@UniqueStringA
 0001:00005A40       System.@UniqueStringU
 0001:000055A8       System.@UStrAddRef
 0001:00005524       System.@UStrArrayClr
 0001:00005874       System.@UStrAsg
 0001:000060C4       System.@UStrCat
 0001:0000611C       System.@UStrCat3
 0001:000061A4       System.@UStrCatN
 0001:000054C4       System.@UStrClr
 0001:0000628C       System.@UStrCopy
 0001:000062D4       System.@UStrDelete
 0001:00006254       System.@UStrEqual
 0001:00005F88       System.@UStrFromLStr
 0001:00005F00       System.@UStrFromPChar
 0001:0000573C       System.@UStrFromPCharLen
 0001:00005F30       System.@UStrFromPWChar
 0001:0000561C       System.@UStrFromPWCharLen
 0001:00006038       System.@UStrFromString
 0001:00005F6C       System.@UStrFromWArray
 0001:00005EF0       System.@UStrFromWChar
 0001:00005FA8       System.@UStrFromWStr
 0001:000058BC       System.@UStrLAsg
 0001:00005984       System.@UStrLen
 0001:00006044       System.@UStrSetLength
 0001:00005ED8       System.@UStrToPWChar
 0001:00005FCC       System.@UStrToString
 0001:00006B90       System.@ValInt64
 0001:0000388C       System.@ValLong
 0001:0000663C       System.@VarClr
 0001:00006770       System.@VarCopy
 0001:00005E7C       System.@WCharToString
 0001:00005584       System.@WStrArrayClr
 0001:000058E8       System.@WStrAsg
 0001:0000550C       System.@WStrClr
 0001:00005D50       System.@WStrCmp
 0001:00005DDC       System.@WStrCopy
 0001:00005DD4       System.@WStrEqual
 0001:00005D30       System.@WStrFromLStr
 0001:00005CC4       System.@WStrFromPChar
 0001:000057E0       System.@WStrFromPCharLen
 0001:00005CF4       System.@WStrFromPWChar
 0001:0000564C       System.@WStrFromPWCharLen
 0001:00005FBC       System.@WStrFromUStr
 0001:00005E28       System.@WStrSetLength
 0001:0000354C       System.@_IOTest
 0001:00006A34       System.@_lldiv
 0001:00006B14       System.@_llmod
 0001:00006A10       System.@_llmul
 0001:00006AC8       System.@_lludiv
 0004:00000034       System.AbstractErrorProc
 0001:0000349C       System.AcquireExceptionObject
 0001:00008374       System.AddModuleUnloadProc
 0001:00008384       System.AddModuleUnloadProc
 0001:00001D2C       System.AllocateLargeBlock
 0001:000033E0       System.AllocMem
 0001:00001C6C       System.AllocNewSequentialFeedMediumPool
 0004:00000908       System.AllocSize2SmallBlockTypeIndX4
 0003:00000064       System.AnsiStringBlockMessage
 0001:00002954       System.AppendClassNameToBuffer
 0001:0000293C       System.AppendStringToBuffer
 0004:0000002C       System.AssertErrorProc
 0001:00001C00       System.BinMediumSequentialFeedRemainder
 0001:00003170       System.BuildBlockTypeLookupTable
 0003:0000005C       System.BytesMessage
 0004:00002B98       System.CachedLangID
 0004:00002B9A       System.CachedLanguageNames
 0001:000055B8       System.CharFromWChar
 0001:000055E4       System.CharFromWChar
 0001:000017C0       System.CharNext
 0001:000076D0       System.CheckDifferentLanguageList
 0001:00004874       System.CheckJmp
 0001:00002BB4       System.CheckSmallBlockPoolForLeaks
 0001:000016C8       System.CloseHandle
 0004:00000048       System.CmdLine
 0004:00000044       System.CmdShow
 0001:000017C8       System.CompareString
 0001:0000744C       System.ConvertResToUILanguages
 0001:000069F0       System.CopyArray
 0003:0000004C       System.Copyright
 0004:00000058       System.CPUCount
 0004:00002B80       System.CrSec
 0003:00000030       System.DebugHook
 0003:00000028       System.Default8087CW
 0003:0000002C       System.DefaultMXCSR
 0004:000008F4       System.DefaultSystemCodePage
 0004:000008F8       System.DefaultUnicodeCodePage
 0001:00007038       System.DelayLoadResourceModule
 0001:00001708       System.DeleteCriticalSection
 0004:00000004       System.DispCallByIDProc
 0004:00002B40       System.DLLThreadContext
 0001:00006E18       System.DynArrayClear
 0001:00006E20       System.DynArraySetLength
 0003:000009F0       System.EmptyStringA
 0003:000009F4       System.EmptyStringW
 0001:000016F8       System.EnterCriticalSection
 0001:00008348       System.EnumResourceModules
 0003:000009BA       System.errCaption
 0001:00003534       System.Error
 0003:00000004       System.ErrorAddr
 0001:000034E8       System.ErrorAt
 0004:0000000C       System.ErrorProc
 0004:00000614       System.ErrOutput
 0004:00000010       System.ExceptClsProc
 0004:00000024       System.ExceptionAcquired
 0004:00000028       System.ExceptionClass
 0001:0000347C       System.ExceptObject
 0004:00000014       System.ExceptObjProc
 0004:00000008       System.ExceptProc
 0003:00000000       System.ExitCode
 0001:000051C4       System.ExitDll
 0004:0000004C       System.ExitProc
 0001:00001718       System.ExitProcess
 0004:00000030       System.ExitProcessProc
 0004:00002B04       System.ExpectedMemoryLeaks
 0004:00002B08       System.ExpectedMemoryLeaksListLocked
 0003:0000000C       System.FileMode
 0001:00008AD4       System.Finalization
 0001:00006A00       System.FinalizeArray
 0001:000073D4       System.FinalizeLocaleDate
 0001:0000338C       System.FinalizeMemoryManager
 0001:00004F20       System.FinalizeUnits
 0001:00007974       System.FindBS
 0001:000016E0       System.FindClose
 0001:000016E8       System.FindFirstFile
 0001:00007080       System.FindResourceHInstance
 0001:0000378C       System.Flush
 0001:000039C0       System.FPower10
 0001:000032DC       System.FreeAllMemory
 0001:00001D90       System.FreeLargeBlock
 0001:00001740       System.FreeLibrary
 0001:000036D4       System.Get8087CW
 0001:00001780       System.GetACP
 0001:00003A7C       System.GetBriefSSEType
 0001:00001868       System.GetCmdShow
 0001:00001750       System.GetCommandLine
 0001:00008A3C       System.GetCPUCount
 0001:00001710       System.GetCurrentThreadId
 0001:00003FB4       System.GetDynaMethod
 0001:000028B0       System.GetFirstAndLastSmallBlockInPool
 0001:00002870       System.GetFirstMediumBlockInPool
 0001:00001738       System.GetLastError
 0001:00001798       System.GetLocaleInfo
 0001:00007EA8       System.GetLocaleOverride
 0001:00001860       System.GetLogicalProcessorInformation
 0001:00001758       System.GetModuleFileName
 0001:00001760       System.GetModuleHandle
 0001:000036DC       System.GetMXCSR
 0001:00002A80       System.GetObjectClass
 0001:00007738       System.GetPreferredLangForNewOS
 0001:0000753C       System.GetPreferredLangForOldOS
 0001:00001768       System.GetProcAddress
 0001:00008160       System.GetResourceModuleName
 0001:00001770       System.GetStartupInfo
 0001:000016D0       System.GetStdHandle
 0001:000017A8       System.GetSystemDefaultUILanguage
 0001:000017F8       System.GetSystemInfo
 0004:00002B70       System.GetThreadPreferredUILanguages
 0004:00002B78       System.GetThreadUILanguage
 0001:00001800       System.GetTickCount
 0001:00007854       System.GetUILanguages
 0001:000017A0       System.GetUserDefaultUILanguage
 0001:000017F0       System.GetVersion
 0003:000009DE       System.hexDigits
 0004:00002B10       System.InitContext
 0001:000016F0       System.InitializeCriticalSection
 0001:000072E4       System.InitializeLocaleData
 0001:000031B4       System.InitializeMemoryManager
 0001:00004F88       System.InitUnits
 0005:00000004       System.InOutRes
 0004:0000005C       System.Input
 0001:00001BA0       System.InsertMediumBlockIntoBin
 0001:00001688       System.InterlockedAdd
 0001:00001694       System.InterlockedCompareExchange
 0001:0000169C       System.InterlockedCompareExchangePointer
 0001:000016A4       System.InterlockedDecrement
 0001:000016B0       System.InterlockedExchange
 0001:000016BC       System.InterlockedIncrement
 0001:00003744       System.InternalFlush
 0001:00007B8C       System.InternalGetLocaleOverride
 0001:00002A00       System.InternalIsValidClass
 0001:000059FC       System.InternalUniqueStringA
 0001:000059B8       System.InternalUniqueStringU
 0001:000056A8       System.InternalUStrFromPCharLen
 0001:0000574C       System.InternalWStrFromPCharLen
 0001:00003D14       System.InvokeImplGetter
 0001:0000357C       System.IOResult
 0004:00000050       System.IsConsole
 0004:00000040       System.IsLibrary
 0004:00000051       System.IsMultiThread
 0001:000017B8       System.IsValidLocale
 0001:00002988       System.IsValidVMTAddress
 0003:00000031       System.JITEnable
 0001:00001840       System.kernel32.dll
 0004:00002AF4       System.LargeBlocksCircularList
 0004:00002AF0       System.LargeBlocksLocked
 0003:00000058       System.LargeLeakDetail
 0001:000073E0       System.LastHyphenPos
 0004:00000A64       System.LastSequentiallyFedMediumBlock
 0003:0000006C       System.LeakMessageFooter
 0003:00000050       System.LeakMessageHeader
 0003:00000070       System.LeakMessageTitle
 0001:00001700       System.LeaveCriticalSection
 0003:00000034       System.LibModuleList
 0001:00008094       System.Load3LettersModule
 0001:00007FC8       System.LoadLanguageList
 0001:00001778       System.LoadLibraryEx
 0001:0000827C       System.LoadResourceModule
 0001:00008988       System.LoadResString
 0001:0000503C       System.LoadResStringA
 0001:000050E0       System.LoadResStringU
 0001:00005090       System.LoadResStringW
 0001:00001748       System.LoadString
 0001:000089F4       System.LocaleCharsFromUnicode
 0003:000009F8       System.LocaleTable
 0001:000019D4       System.LockCmpxchg
 0001:00002AA8       System.LockExpectedMemoryLeaksList
 0001:00001CE4       System.LockLargeBlocks
 0001:00001830       System.lstrcpyn
 0004:00000038       System.MainInstance
 0004:0000003C       System.MainThreadID
 0001:0000515C       System.MakeErrorMessage
 0004:00002B0C       System.MappingObjectHandle
 0001:00004D98       System.MapToRunError
 0004:00000A70       System.MediumBlockBinBitmaps
 0004:00000A6C       System.MediumBlockBinGroupBitmap
 0004:00000AF0       System.MediumBlockBins
 0004:00000A50       System.MediumBlockPoolsCircularList
 0004:00000A60       System.MediumBlocksLocked
 0004:00000A68       System.MediumSequentialFeedBytesLeft
 0003:00000754       System.MemoryManager
 0001:000017D0       System.MessageBoxA
 0004:00000A4E       System.MinimumBlockAlignment
 0003:00000038       System.ModuleUnloadList
 0004:000008F0       System.MonitorSupport
 0001:0000359C       System.Move
 0001:000019DC       System.Move12
 0001:000019F0       System.Move20
 0001:00001A10       System.Move28
 0001:00001A3C       System.Move36
 0001:00001A5C       System.Move44
 0001:00001A80       System.Move52
 0001:00001AAC       System.Move60
 0001:00001ADC       System.Move68
 0001:00001B14       System.MoveX16LP
 0001:00001B44       System.MoveX8LP
 0001:00001788       System.MultiByteToWideChar
 0001:000028EC       System.NativeUIntToStrBuf
 0004:00000901       System.NeverSleepOnMMThreadContention
 0001:0000284C       System.NextMediumBlock
 0003:00000032       System.NoErrMsg
 0001:00004860       System.NotifyAnyExcept
 0001:00004834       System.NotifyExcept
 0001:00004894       System.NotifyExceptFinally
 0001:00008408       System.NotifyModuleUnload
 0001:00004810       System.NotifyNonDelphiException
 0001:0000484C       System.NotifyOnExcept
 0001:000047F4       System.NotifyReRaise
 0001:000048BC       System.NotifyTerminate
 0001:000048D8       System.NotifyUnhandled
 0003:0000003C       System.ObjCastGUID
 0004:00000338       System.Output
 0001:00006338       System.Pos
 0001:00006378       System.Pos
 0003:00000788       System.Pow10Tab0
 0003:000008C8       System.Pow10Tab1
 0003:00000960       System.Pow10Tab2
 0003:00000C00       System.PreferredLanguagesOverride
 0001:00001808       System.QueryPerformanceCounter
 0001:00001720       System.RaiseException
 0004:00000018       System.RaiseExceptionProc
 0004:00000020       System.RaiseExceptObjProc
 0001:000034D0       System.RaiseList
 0005:00000000       System.RaiseListPtr
 0001:0000369C       System.Randomize
 0003:00000008       System.RandSeed
 0001:00001E34       System.ReallocateLargeBlock
 0001:000017D8       System.RegCloseKey
 0001:00008464       System.RegisterModule
 0001:000017E0       System.RegOpenKeyEx
 0001:000017E8       System.RegQueryValueEx
 0003:0000076C       System.reMap
 0001:00001B60       System.RemoveMediumFreeBlock
 0001:0000837C       System.RemoveModuleUnloadProc
 0001:000083A4       System.RemoveModuleUnloadProc
 0004:00000900       System.ReportMemoryLeaksOnShutdown
 0001:00007F5C       System.ResouceDLLExists
 0001:00001728       System.RtlUnwind
 0004:0000001C       System.RTLUnwindProc
 0003:000009C0       System.runErrMsg
 0001:000034DC       System.RunErrorAt
 0001:00002D70       System.ScanForMemoryLeaks
 0001:000036C4       System.Set8087CW
 0001:000063C4       System.SetCodePage
 0001:00004ED8       System.SetExceptionHandler
 0001:0000356C       System.SetInOutRes
 0001:00007F0C       System.SetLocaleOverride
 0001:000017B0       System.SetThreadLocale
 0004:00002B74       System.SetThreadPreferredUILanguages
 0001:00008A50       System.SetUtf8CompareLocale
 0001:000018A4       System.Sleep
 0003:00000074       System.SmallBlockTypes
 0003:00000054       System.SmallLeakDetail
 0001:00002818       System.SysAllocMem
 0001:00001818       System.SysAllocStringLen
 0001:00002308       System.SysFreeMem
 0001:00001828       System.SysFreeString
 0001:00001F84       System.SysGetMem
 0001:00002500       System.SysReallocMem
 0001:00001820       System.SysReAllocStringLen
 0001:00002B1C       System.SysRegisterExpectedMemoryLeak
 0002:00000000       System.System
 0001:00002B5C       System.SysUnregisterExpectedMemoryLeak
 0004:00000052       System.Test8086
 0004:00000054       System.TestSSE
 0001:00008A8C       System.TGUID.&op_Equality
 0001:00008AB0       System.TGUID.&op_Inequality
 0001:00008AC4       System.TGUID.Empty
 0001:000076F4       System.ThreadUILanguages
 0001:00008564       System.TInterfacedObject.AfterConstruction
 0001:00008570       System.TInterfacedObject.BeforeDestruction
 0001:00008580       System.TInterfacedObject.NewInstance
 0001:00008590       System.TInterfacedObject.QueryInterface
 0001:000085B8       System.TInterfacedObject._AddRef
 0001:000085CC       System.TInterfacedObject._Release
 0004:00000000       System.TMonitor.CacheLineSize
 0001:00004434       System.TMonitor.CheckMonitorSupport
 0001:00004448       System.TMonitor.CheckOwningThread
 0001:00004460       System.TMonitor.Create
 0001:000044B4       System.TMonitor.Destroy
 0001:0000449C       System.TMonitor.Destroy
 0001:000044FC       System.TMonitor.Enter
 0001:000044E0       System.TMonitor.Enter
 0001:00004694       System.TMonitor.Exit
 0001:000046E0       System.TMonitor.Exit
 0001:00004338       System.TMonitor.GetCacheLineSize
 0001:000046F8       System.TMonitor.GetEvent
 0001:00004760       System.TMonitor.GetFieldAddress
 0001:00004770       System.TMonitor.GetMonitor
 0001:000047AC       System.TMonitor.TryEnter
 0001:00004040       System.TObject.AfterConstruction
 0001:00004044       System.TObject.BeforeDestruction
 0001:00004018       System.TObject.ClassInfo
 0001:00003AF0       System.TObject.ClassName
 0001:00003B98       System.TObject.ClassNameIs
 0001:00003C14       System.TObject.ClassParent
 0001:00003AE8       System.TObject.ClassType
 0001:00003CEC       System.TObject.CleanupInstance
 0001:00003C58       System.TObject.Create
 0001:0000403C       System.TObject.DefaultHandler
 0001:00003C78       System.TObject.Destroy
 0001:00004048       System.TObject.Dispatch
 0001:00003D44       System.TObject.Equals
 0001:00004258       System.TObject.FieldAddress
 0001:000041E4       System.TObject.FieldAddress
 0001:00003C88       System.TObject.Free
 0001:00003C3C       System.TObject.FreeInstance
 0001:00003D4C       System.TObject.GetHashCode
 0001:00003D50       System.TObject.GetInterface
 0001:00003DFC       System.TObject.GetInterfaceEntry
 0001:00003E40       System.TObject.GetInterfaceTable
 0001:00004004       System.TObject.InheritsFrom
 0001:00003C94       System.TObject.InitInstance
 0001:00003C50       System.TObject.InstanceSize
 0001:000040EC       System.TObject.MethodAddress
 0001:00004170       System.TObject.MethodAddress
 0001:00004198       System.TObject.MethodName
 0001:00003C20       System.TObject.NewInstance
 0001:00003B08       System.TObject.QualifiedClassName
 0001:00004020       System.TObject.SafeCallException
 0001:00004028       System.TObject.ToString
 0001:00003E48       System.TObject.UnitName
 0001:00003EC4       System.TObject.UnitScope
 0001:00007998       System.ToLongPath
 0001:00001730       System.UnhandledExceptionFilter
 0001:00008A1C       System.UnicodeFromLocaleChars
 0003:00000068       System.UnicodeStringBlockMessage
 0001:000085F4       System.UnicodeToUtf8
 0003:00000060       System.UnknownClassNameMsg
 0001:00008474       System.UnregisterModule
 0001:00004EF8       System.UnsetExceptionHandler
 0004:00002B7C       System.UseThreadUILanguageAPI
 0001:00004074       System.UTF8Compare
 0004:000008FC       System.UTF8CompareLocale
 0001:00008724       System.UTF8Encode
 0001:00008800       System.UTF8EncodeToShortString
 0001:0000415C       System.UTF8ShortStringToString
 0001:00008974       System.UTF8ToString
 0001:00008694       System.Utf8ToUnicode
 0001:000088E4       System.UTF8ToUnicodeString
 0001:00008838       System.UTF8ToUnicodeString
 0003:00000014       System.VarAddRefProc
 0003:00000010       System.VarClearProc
 0003:00000018       System.VarCopyProc
 0003:0000001C       System.VarToLStrProc
 0003:00000024       System.VarToUStrProc
 0003:00000020       System.VarToWStrProc
 0001:00001894       System.VirtualAlloc
 0001:0000189C       System.VirtualFree
 0001:00001810       System.VirtualQuery
 0001:00005600       System.WCharFromChar
 0001:00001790       System.WideCharToMultiByte
 0001:000051F0       System.WriteErrorMessage
 0001:000016D8       System.WriteFile
 0001:000054A4       System.WStrError
 0001:00005CB4       System.WStrSet
 0001:000047F0       System.YieldProcessor
 0001:0000A280       System.Character.bin_data
 0004:00002C74       System.Character.CategoryTable
 0004:00002C6C       System.Character.CatIndexPrimary
 0004:00002C70       System.Character.CatIndexSecondary
 0004:00002C68       System.Character.DataTable
 0003:00000C8C       System.Character.Latin1Categories
 0004:00002C80       System.Character.NumericValueTable
 0004:00002C78       System.Character.NumIndexPrimary
 0004:00002C7C       System.Character.NumIndexSecondary
 0001:0000A0EC       System.Character.TCharacter.CheckLetter
 0001:0000A0F8       System.Character.TCharacter.CheckLetterOrDigit
 0001:0000A108       System.Character.TCharacter.CheckNumber
 0001:0000A220       System.Character.TCharacter.GetUnicodeCategory
 0001:000131BC       System.Character.TCharacter.Initialize
 0001:0000A214       System.Character.TCharacter.IsAscii
 0001:0000A114       System.Character.TCharacter.IsLatin1
 0001:0000A120       System.Character.TCharacter.IsLetter
 0001:0000A1AC       System.Character.TCharacter.IsLetterOrDigit
 0001:00013210       System.Character.TCharacter.IsNumber
 0004:00004F7C       System.Classes..77
 0001:0002CEAC       System.Classes..EClassNotFound
 0001:0002D204       System.Classes..EComponentError
 0001:0002CB64       System.Classes..EFCreateError
 0001:0002CCB4       System.Classes..EFilerError
 0001:0002CA5C       System.Classes..EFileStreamError
 0001:0002CC0C       System.Classes..EFOpenError
 0001:0002CF5C       System.Classes..EInvalidImage
 0001:0002D0AC       System.Classes..EListError
 0001:000350F4       System.Classes..EObserverException
 0001:0002CD5C       System.Classes..EReadError
 0001:0002D004       System.Classes..EResNotFound
 0001:0002C9B4       System.Classes..EStreamError
 0001:0002D154       System.Classes..EStringListError
 0001:0002CE04       System.Classes..EWriteError
 0001:00035E80       System.Classes..TBasicAction
 0001:00035C54       System.Classes..TBasicActionLink
 0001:000320B8       System.Classes..TClassFinder
 0001:0002EF4C       System.Classes..TCollection
 0001:0002ED98       System.Classes..TCollectionEnumerator
 0001:0002EB20       System.Classes..TCollectionItem
 0001:0003525C       System.Classes..TComponent
 0001:00044030       System.Classes..TComponent.FindComponent$891$ActRec
 0001:0004456C       System.Classes..TComponent.GetObservers$902$ActRec
 0001:000348C4       System.Classes..TComponentEnumerator
 0001:00031984       System.Classes..TCustomMemoryStream
 0001:00032530       System.Classes..TFiler
 0001:00031794       System.Classes..TFileStream
 0001:00031570       System.Classes..THandleStream
 0001:0002E410       System.Classes..TInterfaceList
 0001:0002E100       System.Classes..TInterfaceListEnumerator
 0001:0002D604       System.Classes..TList
 0001:0003849C       System.Classes..TList.Sort$267$ActRec
 0001:0002D420       System.Classes..TListEnumerator
 0001:00031BDC       System.Classes..TMemoryStream
 0001:00034CAC       System.Classes..TObservers
 0001:0002E9A0       System.Classes..TPersistent
 0001:0003D4D4       System.Classes..TPropFixup
 0001:0003D710       System.Classes..TPropIntfFixup
 0001:00032F54       System.Classes..TReader
 0001:00036358       System.Classes..TRegGroup
 0001:000367C0       System.Classes..TRegGroups
 0001:00031E34       System.Classes..TResourceStream
 0001:00030F5C       System.Classes..TStream
 0001:00030888       System.Classes..TStringList
 0001:0002F704       System.Classes..TStrings
 0001:0002F554       System.Classes..TStringsEnumerator
 0001:0002DDC0       System.Classes..TThreadList
 0001:00033E64       System.Classes..TWriter
 0001:0003DA9C       System.Classes.AddFinished
 0001:0003DAD4       System.Classes.AddNotFinished
 0001:0003E854       System.Classes.AddSubComponentsToLoaded
 0001:00041F60       System.Classes.AncestorIsValid
 0001:0003E890       System.Classes.CheckSubComponents
 0001:000378F8       System.Classes.ClassNotFound
 0001:00044E08       System.Classes.CleanupInstFreeList
 0001:00037BF4       System.Classes.CollectionsEqual
 0001:0003E96C       System.Classes.ComponentCreated
 0001:0004086C       System.Classes.CopyBinary
 0001:000407DC       System.Classes.CopyBytes
 0001:00040790       System.Classes.CopyList
 0001:00040708       System.Classes.CopySetBody
 0001:0003E9EC       System.Classes.CreateComponent
 0003:000028DC       System.Classes.CreateVCLComObjectProc
 0001:0003A198       System.Classes.DoWrite
 0003:000028E4       System.Classes.Dummy32bitResHeader
 0001:00044ED8       System.Classes.EFileStreamError.Create
 0001:0003D30C       System.Classes.Error
 0001:000373D4       System.Classes.Error
 0003:000028E0       System.Classes.FilerSignature
 0001:000458D8       System.Classes.Finalization
 0001:000414BC       System.Classes.FindAncestor
 0001:000379BC       System.Classes.FindClass
 0001:0003EB9C       System.Classes.FindExistingComponent
 0001:00037B24       System.Classes.FindGlobalComponent
 0004:00004F88       System.Classes.FindGlobalComponentProcs
 0001:00037AA8       System.Classes.FindIdentToInt
 0001:00037A2C       System.Classes.FindIntToIdent
 0001:00042440       System.Classes.FindMethodName
 0001:0003D950       System.Classes.FindNestedComponent
 0001:0003FBF8       System.Classes.FindUniqueName
 0001:00044D90       System.Classes.FreeIntConstList
 0001:00037964       System.Classes.GetClass
 0001:00042B34       System.Classes.GetComponentValue
 0001:0003942C       System.Classes.GetDesigner
 0001:000378EC       System.Classes.GetFieldClassTable
 0001:00044E44       System.Classes.GetFreeInstBlockItemCount
 0004:00004F8C       System.Classes.GlobalFixupList
 0001:0003DB1C       System.Classes.GlobalFixupReferences
 0005:00000010       System.Classes.GlobalLists
 0005:0000000C       System.Classes.GlobalLoaded
 0004:00004F74       System.Classes.GlobalNameSpace
 0001:0003F398       System.Classes.HandleException
 0004:00004F90       System.Classes.InstBlockList
 0004:00004F94       System.Classes.InstFreeList
 0004:00004F80       System.Classes.IntConstList
 0001:000421C0       System.Classes.IsDefault
 0001:00041FD0       System.Classes.IsDefaultFloatProp
 0001:0004202C       System.Classes.IsDefaultInt64Prop
 0001:00042364       System.Classes.IsDefaultInterfaceProp
 0001:00042498       System.Classes.IsDefaultMethodProp
 0001:00042218       System.Classes.IsDefaultObjectProp
 0001:00041F78       System.Classes.IsDefaultOrdProp
 0001:000425D0       System.Classes.IsDefaultPropertyValue
 0001:00042084       System.Classes.IsDefaultStrProp
 0001:00042298       System.Classes.IsDefaultValue
 0001:00042538       System.Classes.IsDefaultVariantProp
 0001:00037B64       System.Classes.IsUniqueGlobalComponentName
 0004:00004F78       System.Classes.IsUniqueGlobalComponentNameProc
 0001:00044E00       System.Classes.ModuleUnload
 0001:0003631C       System.Classes.NextChar
 0003:00002904       System.Classes.NilMethod
 0001:000394CC       System.Classes.NotifyDesigner
 0001:00042114       System.Classes.ObjectAncestorMatch
 0001:00042B1C       System.Classes.OwnedBy
 0001:0003DEB8       System.Classes.PropertyNotFound
 0001:0003F468       System.Classes.PropPathError
 0001:0003DEAC       System.Classes.PropValueError
 0001:00038304       System.Classes.QuickSort
 0001:0003C484       System.Classes.RaiseException
 0001:00040D54       System.Classes.ReadCustomVariant
 0001:0003DE94       System.Classes.ReadError
 0001:0003E98C       System.Classes.Recover
 0004:00004F84       System.Classes.RegGroups
 0001:00044E74       System.Classes.ReleaseObjectInstanceBlocks
 0001:0003DCEC       System.Classes.RemoveFixupReferences
 0001:0003DE0C       System.Classes.RemoveFixups
 0001:0003E2D0       System.Classes.RemoveGlobalFixup
 0001:0003EAFC       System.Classes.SetCompName
 0001:0003DEE4       System.Classes.SetElementValue
 0001:0003F7C0       System.Classes.SetInterfaceReference
 0001:0003F6DC       System.Classes.SetIntIdent
 0001:0003F724       System.Classes.SetObjectIdent
 0001:0003E908       System.Classes.SetSubComponentState
 0001:0003F764       System.Classes.SetVariantReference
 0001:000404C4       System.Classes.SkipBinary
 0001:000404F4       System.Classes.SkipCollection
 0001:00040498       System.Classes.SkipList
 0001:0003C270       System.Classes.StringListCompareStrings
 0002:00000454       System.Classes.System.Classes
 0001:00044D04       System.Classes.TBasicAction.Change
 0001:00044B90       System.Classes.TBasicAction.Create
 0001:00044BD4       System.Classes.TBasicAction.Destroy
 0001:00044C70       System.Classes.TBasicAction.Execute
 0001:00044C40       System.Classes.TBasicAction.ExecuteTarget
 0001:00044C3C       System.Classes.TBasicAction.HandlesTarget
 0001:00044C44       System.Classes.TBasicAction.Notification
 0001:00044D18       System.Classes.TBasicAction.RegisterChanges
 0001:00044D64       System.Classes.TBasicAction.SetActionComponent
 0001:00044CA8       System.Classes.TBasicAction.SetOnExecute
 0001:00044D24       System.Classes.TBasicAction.UnRegisterChanges
 0001:00044C8C       System.Classes.TBasicAction.Update
 0001:00044C6C       System.Classes.TBasicAction.UpdateTarget
 0001:00044AE0       System.Classes.TBasicActionLink.AssignClient
 0001:00044B18       System.Classes.TBasicActionLink.Change
 0001:00044A9C       System.Classes.TBasicActionLink.Create
 0001:00044AE4       System.Classes.TBasicActionLink.Destroy
 0001:00044B30       System.Classes.TBasicActionLink.Execute
 0001:00044B78       System.Classes.TBasicActionLink.IsOnExecuteLinked
 0001:00044B4C       System.Classes.TBasicActionLink.SetAction
 0001:00044B7C       System.Classes.TBasicActionLink.SetOnExecute
 0001:00044B84       System.Classes.TBasicActionLink.Update
 0001:0003768C       System.Classes.TClassFinder.Create
 0001:000377C4       System.Classes.TClassFinder.Destroy
 0001:000377F0       System.Classes.TClassFinder.GetClass
 0001:0003787C       System.Classes.TClassFinder.GetClasses
 0001:000397FC       System.Classes.TCollection.Add
 0001:00039D34       System.Classes.TCollection.Added
 0001:0003981C       System.Classes.TCollection.Assign
 0001:000398C4       System.Classes.TCollection.BeginUpdate
 0001:000398C8       System.Classes.TCollection.Changed
 0001:000398D8       System.Classes.TCollection.Clear
 0001:00039764       System.Classes.TCollection.Create
 0001:00039CF8       System.Classes.TCollection.Delete
 0001:00039D38       System.Classes.TCollection.Deleting
 0001:000397B0       System.Classes.TCollection.Destroy
 0001:00039940       System.Classes.TCollection.EndUpdate
 0001:0003994C       System.Classes.TCollection.FindItemID
 0001:00039980       System.Classes.TCollection.GetAttr
 0001:0003997C       System.Classes.TCollection.GetAttrCount
 0001:0003999C       System.Classes.TCollection.GetCapacity
 0001:000399C4       System.Classes.TCollection.GetCount
 0001:0003998C       System.Classes.TCollection.GetEnumerator
 0001:000399CC       System.Classes.TCollection.GetItem
 0001:000399A4       System.Classes.TCollection.GetItemAttr
 0001:000399E0       System.Classes.TCollection.GetNamePath
 0001:00039A94       System.Classes.TCollection.GetPropName
 0001:00039BE8       System.Classes.TCollection.Insert
 0001:00039C04       System.Classes.TCollection.InsertItem
 0001:00039D3C       System.Classes.TCollection.Notify
 0001:00039D28       System.Classes.TCollection.Owner
 0001:00039C6C       System.Classes.TCollection.RemoveItem
 0001:00039CC0       System.Classes.TCollection.SetCapacity
 0001:00039CD0       System.Classes.TCollection.SetItem
 0001:00039CF0       System.Classes.TCollection.SetItemName
 0001:00039CF4       System.Classes.TCollection.Update
 0001:000396F8       System.Classes.TCollectionEnumerator.Create
 0001:0003973C       System.Classes.TCollectionEnumerator.GetCurrent
 0001:00039748       System.Classes.TCollectionEnumerator.MoveNext
 0001:00039598       System.Classes.TCollectionItem.Changed
 0001:00039530       System.Classes.TCollectionItem.Create
 0001:00039568       System.Classes.TCollectionItem.Destroy
 0001:000395D4       System.Classes.TCollectionItem.GetDisplayName
 0001:000395BC       System.Classes.TCollectionItem.GetIndex
 0001:000395E8       System.Classes.TCollectionItem.GetNamePath
 0001:00039694       System.Classes.TCollectionItem.GetOwner
 0001:00039698       System.Classes.TCollectionItem.SetCollection
 0001:000396C0       System.Classes.TCollectionItem.SetDisplayName
 0001:000396C8       System.Classes.TCollectionItem.SetIndex
 0001:00044278       System.Classes.TComponent.AddSortedComponent
 0001:000439A0       System.Classes.TComponent.BeforeDestruction
 0001:00044800       System.Classes.TComponent.CanObserve
 0001:0004432C       System.Classes.TComponent.ChangeName
 0001:00043904       System.Classes.TComponent.Create
 0001:00043D4C       System.Classes.TComponent.DefineProperties
 0001:00043950       System.Classes.TComponent.Destroy
 0001:00043BD0       System.Classes.TComponent.DestroyComponents
 0001:00043C3C       System.Classes.TComponent.Destroying
 0001:0004479C       System.Classes.TComponent.ExecuteAction
 0001:0004410C       System.Classes.TComponent.FindComponent
 0001:00044100       System.Classes.TComponent.FindComponent$891$ActRec.$0$Body
 0001:000441F8       System.Classes.TComponent.FindSortedComponent
 0001:000439EC       System.Classes.TComponent.FreeNotification
 0001:000448D8       System.Classes.TComponent.FreeOnRelease
 0001:00043DF0       System.Classes.TComponent.GetChildOwner
 0001:00043DF4       System.Classes.TComponent.GetChildParent
 0001:00043DE8       System.Classes.TComponent.GetChildren
 0001:00044808       System.Classes.TComponent.GetComObject
 0001:00044380       System.Classes.TComponent.GetComponent
 0001:000443AC       System.Classes.TComponent.GetComponentCount
 0001:00044364       System.Classes.TComponent.GetComponentIndex
 0001:00043DF8       System.Classes.TComponent.GetEnumerator
 0001:00043E08       System.Classes.TComponent.GetNamePath
 0001:00044678       System.Classes.TComponent.GetObservers
 0001:00044654       System.Classes.TComponent.GetObservers$902$ActRec.$0$Body
 0001:00044660       System.Classes.TComponent.GetObservers$902$ActRec.$1$Body
 0001:00043E1C       System.Classes.TComponent.GetOwner
 0001:00043E24       System.Classes.TComponent.GetParentComponent
 0001:00043DE4       System.Classes.TComponent.HasParent
 0001:00043A80       System.Classes.TComponent.Insert
 0001:00043B34       System.Classes.TComponent.InsertComponent
 0001:00044970       System.Classes.TComponent.IntfGetComponent
 0001:00044974       System.Classes.TComponent.IsImplementorOf
 0001:00043E44       System.Classes.TComponent.Loaded
 0001:00043CEC       System.Classes.TComponent.Notification
 0001:00044804       System.Classes.TComponent.ObserverAdded
 0001:00043E50       System.Classes.TComponent.PaletteCreated
 0001:000448F0       System.Classes.TComponent.QueryInterface
 0001:00043A40       System.Classes.TComponent.ReadLeft
 0001:00043E54       System.Classes.TComponent.ReadState
 0001:00043A54       System.Classes.TComponent.ReadTop
 0001:000449F4       System.Classes.TComponent.ReferenceInterface
 0001:00043ABC       System.Classes.TComponent.Remove
 0001:00043B98       System.Classes.TComponent.RemoveComponent
 0001:00043CD0       System.Classes.TComponent.RemoveFreeNotification
 0001:000439AC       System.Classes.TComponent.RemoveFreeNotifications
 0001:00043C78       System.Classes.TComponent.RemoveNotification
 0001:000448C0       System.Classes.TComponent.SafeCallException
 0001:00043E20       System.Classes.TComponent.SetChildOrder
 0001:000443BC       System.Classes.TComponent.SetComponentIndex
 0001:00044724       System.Classes.TComponent.SetDesigning
 0001:0004429C       System.Classes.TComponent.SetName
 0001:00043E28       System.Classes.TComponent.SetParentComponent
 0001:00044774       System.Classes.TComponent.SetReference
 0001:000447EC       System.Classes.TComponent.SetSubComponent
 0001:000447C4       System.Classes.TComponent.UpdateAction
 0001:00043E38       System.Classes.TComponent.Updated
 0001:000448E8       System.Classes.TComponent.UpdateRegistry
 0001:00043E2C       System.Classes.TComponent.Updating
 0001:00043F68       System.Classes.TComponent.ValidateContainer
 0001:00043F7C       System.Classes.TComponent.ValidateInsert
 0001:00043E64       System.Classes.TComponent.ValidateRename
 0001:00043A68       System.Classes.TComponent.WriteLeft
 0001:00043E5C       System.Classes.TComponent.WriteState
 0001:00043A74       System.Classes.TComponent.WriteTop
 0001:00044930       System.Classes.TComponent._AddRef
 0001:00044950       System.Classes.TComponent._Release
 0001:00043898       System.Classes.TComponentEnumerator.Create
 0001:000438DC       System.Classes.TComponentEnumerator.GetCurrent
 0001:000438E8       System.Classes.TComponentEnumerator.MoveNext
 0001:0003CF80       System.Classes.TCustomMemoryStream.Read
 0001:0003D014       System.Classes.TCustomMemoryStream.SaveToFile
 0001:0003CFFC       System.Classes.TCustomMemoryStream.SaveToStream
 0001:0003CFB8       System.Classes.TCustomMemoryStream.Seek
 0001:0003CF78       System.Classes.TCustomMemoryStream.SetPointer
 0001:0003D460       System.Classes.TFiler.Create
 0001:000328F4       System.Classes.TFiler.DefineBinaryProperty
 0001:000328EC       System.Classes.TFiler.DefineProperty
 0001:0003D4A8       System.Classes.TFiler.Destroy
 0001:000328FC       System.Classes.TFiler.FlushBuffer
 0001:0003D4D0       System.Classes.TFiler.SetRoot
 0001:0003CD88       System.Classes.TFileStream.Create
 0001:0003CDCC       System.Classes.TFileStream.Create
 0001:0003CF44       System.Classes.TFileStream.Destroy
 0001:0003CCC4       System.Classes.THandleStream.Create
 0001:0003CD00       System.Classes.THandleStream.Read
 0001:0003CD20       System.Classes.THandleStream.Seek
 0001:0003CD4C       System.Classes.THandleStream.SetSize
 0001:0003CD60       System.Classes.THandleStream.SetSize
 0001:0003CD10       System.Classes.THandleStream.Write
 0001:00038F34       System.Classes.TInterfaceList.Add
 0001:00038C58       System.Classes.TInterfaceList.Clear
 0001:00038BD8       System.Classes.TInterfaceList.Create
 0001:00038CCC       System.Classes.TInterfaceList.Delete
 0001:00038C1C       System.Classes.TInterfaceList.Destroy
 0001:00039218       System.Classes.TInterfaceList.Exchange
 0001:00038D30       System.Classes.TInterfaceList.Expand
 0001:00038D88       System.Classes.TInterfaceList.First
 0001:00038D9C       System.Classes.TInterfaceList.Get
 0001:00038E14       System.Classes.TInterfaceList.GetCapacity
 0001:00038E68       System.Classes.TInterfaceList.GetCount
 0001:00038EBC       System.Classes.TInterfaceList.GetEnumerator
 0001:00038ECC       System.Classes.TInterfaceList.IndexOf
 0001:00038ED4       System.Classes.TInterfaceList.IndexOfItem
 0001:00038FA4       System.Classes.TInterfaceList.Insert
 0001:00039010       System.Classes.TInterfaceList.Last
 0001:00039270       System.Classes.TInterfaceList.Lock
 0001:0003906C       System.Classes.TInterfaceList.Put
 0001:000390E4       System.Classes.TInterfaceList.Remove
 0001:000390EC       System.Classes.TInterfaceList.RemoveItem
 0001:00039170       System.Classes.TInterfaceList.SetCapacity
 0001:000391C4       System.Classes.TInterfaceList.SetCount
 0001:0003927C       System.Classes.TInterfaceList.Unlock
 0001:00038B60       System.Classes.TInterfaceListEnumerator.Create
 0001:00038BA4       System.Classes.TInterfaceListEnumerator.GetCurrent
 0001:00038BBC       System.Classes.TInterfaceListEnumerator.MoveNext
 0001:00037D98       System.Classes.TList.Add
 0001:00038664       System.Classes.TList.Assign
 0001:00037DD8       System.Classes.TList.Clear
 0001:00037DF0       System.Classes.TList.Delete
 0001:00037D78       System.Classes.TList.Destroy
 0001:00037E58       System.Classes.TList.Error
 0001:00037E90       System.Classes.TList.Error
 0001:00037F04       System.Classes.TList.Exchange
 0001:00037F5C       System.Classes.TList.Expand
 0001:00038608       System.Classes.TList.Extract
 0001:00038610       System.Classes.TList.ExtractItem
 0001:00037F74       System.Classes.TList.First
 0001:00037F7C       System.Classes.TList.Get
 0001:00037FA0       System.Classes.TList.GetEnumerator
 0001:00037FB0       System.Classes.TList.Grow
 0001:00037FE4       System.Classes.TList.IndexOf
 0001:00038008       System.Classes.TList.IndexOfItem
 0001:0003803C       System.Classes.TList.Insert
 0001:000380B4       System.Classes.TList.Last
 0001:000380D8       System.Classes.TList.Move
 0001:00038660       System.Classes.TList.Notify
 0001:000381B8       System.Classes.TList.Pack
 0001:00038130       System.Classes.TList.Put
 0001:00038190       System.Classes.TList.Remove
 0001:00038198       System.Classes.TList.RemoveItem
 0001:0003822C       System.Classes.TList.SetCapacity
 0001:00038268       System.Classes.TList.SetCount
 0001:00038574       System.Classes.TList.Sort
 0001:00038568       System.Classes.TList.Sort$267$ActRec.$0$Body
 0001:000385F0       System.Classes.TList.SortList
 0001:00037D10       System.Classes.TListEnumerator.Create
 0001:00037D54       System.Classes.TListEnumerator.GetCurrent
 0001:00037D60       System.Classes.TListEnumerator.MoveNext
 0001:0003D098       System.Classes.TMemoryStream.Clear
 0001:0003D06C       System.Classes.TMemoryStream.Destroy
 0001:0003D0E8       System.Classes.TMemoryStream.LoadFromFile
 0001:0003D0B0       System.Classes.TMemoryStream.LoadFromStream
 0001:0003D190       System.Classes.TMemoryStream.Realloc
 0001:0003D13C       System.Classes.TMemoryStream.SetCapacity
 0001:0003D164       System.Classes.TMemoryStream.SetSize
 0001:0003D210       System.Classes.TMemoryStream.Write
 0001:0004503C       System.Classes.TObservers.AddObserver
 0001:0004522C       System.Classes.TObservers.AddObserver
 0001:00045024       System.Classes.TObservers.CanObserve
 0001:00044F88       System.Classes.TObservers.Create
 0001:00044FF0       System.Classes.TObservers.Destroy
 0001:0004524C       System.Classes.TObservers.GetMultiCastObserver
 0001:00045400       System.Classes.TObservers.GetSingleCastObserver
 0001:0004555C       System.Classes.TObservers.IsObserving
 0001:000457AC       System.Classes.TObservers.RemoveObserver
 0001:000457CC       System.Classes.TObservers.RemoveObserver
 0001:00045674       System.Classes.TObservers.TryIsObserving
 0001:000392B4       System.Classes.TPersistent.Assign
 0001:000392C8       System.Classes.TPersistent.AssignError
 0001:00039384       System.Classes.TPersistent.AssignTo
 0001:0003938C       System.Classes.TPersistent.DefineProperties
 0001:00039288       System.Classes.TPersistent.Destroy
 0001:00039390       System.Classes.TPersistent.GetNamePath
 0001:00039428       System.Classes.TPersistent.GetOwner
 0001:0003D804       System.Classes.TPropFixup.Create
 0001:0003D85C       System.Classes.TPropFixup.MakeGlobalReference
 0001:0003D8BC       System.Classes.TPropFixup.ResolveReference
 0001:0003D8CC       System.Classes.TPropIntfFixup.ResolveReference
 0001:0003DF34       System.Classes.TReader.BeginReferences
 0001:0003DF9C       System.Classes.TReader.CheckValue
 0001:000408C4       System.Classes.TReader.CopyValue
 0001:0003E068       System.Classes.TReader.DefineBinaryProperty
 0001:0003DFC0       System.Classes.TReader.DefineProperty
 0001:0003DEFC       System.Classes.TReader.Destroy
 0001:0003E350       System.Classes.TReader.DoFixupReferences
 0001:0003E1BC       System.Classes.TReader.EndOfList
 0001:0003E1D0       System.Classes.TReader.EndReferences
 0001:0003E1EC       System.Classes.TReader.Error
 0001:00040BA0       System.Classes.TReader.FindAncestorComponent
 0001:00040C98       System.Classes.TReader.FindComponentClass
 0001:0003E280       System.Classes.TReader.FindMethod
 0001:0003E210       System.Classes.TReader.FindMethodInstance
 0001:0003E494       System.Classes.TReader.FixupReferences
 0001:0003E4CC       System.Classes.TReader.FlushBuffer
 0001:0003E4F0       System.Classes.TReader.FreeFixups
 0001:0003E52C       System.Classes.TReader.GetFieldClass
 0001:0003E5C0       System.Classes.TReader.GetPosition
 0001:0003E5D8       System.Classes.TReader.NextValue
 0001:0003E5E8       System.Classes.TReader.PropertyError
 0001:0003E5FC       System.Classes.TReader.Read
 0001:0003E684       System.Classes.TReader.ReadBoolean
 0001:0003E648       System.Classes.TReader.ReadBuffer
 0001:0003E6B0       System.Classes.TReader.ReadChar
 0001:0003E770       System.Classes.TReader.ReadCollection
 0001:0003EC3C       System.Classes.TReader.ReadComponent
 0001:0003FF94       System.Classes.TReader.ReadComponents
 0001:0003F07C       System.Classes.TReader.ReadCurrency
 0001:0003EE7C       System.Classes.TReader.ReadData
 0001:0003EEEC       System.Classes.TReader.ReadDataInner
 0001:0003F0CC       System.Classes.TReader.ReadDate
 0001:0003EFF4       System.Classes.TReader.ReadDouble
 0001:0003EFBC       System.Classes.TReader.ReadFloat
 0001:0003F110       System.Classes.TReader.ReadIdent
 0001:0003F304       System.Classes.TReader.ReadInt64
 0001:0003F298       System.Classes.TReader.ReadInteger
 0001:0003F348       System.Classes.TReader.ReadListBegin
 0001:0003F350       System.Classes.TReader.ReadListEnd
 0001:0003F358       System.Classes.TReader.ReadPrefix
 0001:0003F484       System.Classes.TReader.ReadProperty
 0001:0003F880       System.Classes.TReader.ReadPropValue
 0001:0003FC60       System.Classes.TReader.ReadRootComponent
 0001:00040084       System.Classes.TReader.ReadSet
 0001:00040140       System.Classes.TReader.ReadSignature
 0001:0003F038       System.Classes.TReader.ReadSingle
 0001:00040164       System.Classes.TReader.ReadStr
 0001:000401F4       System.Classes.TReader.ReadString
 0001:0004041C       System.Classes.TReader.ReadValue
 0001:00040F1C       System.Classes.TReader.ReadVariant
 0001:0003E710       System.Classes.TReader.ReadWideChar
 0001:000402DC       System.Classes.TReader.ReadWideString
 0001:00040C58       System.Classes.TReader.ReferenceName
 0001:00040C70       System.Classes.TReader.SetName
 0001:00040430       System.Classes.TReader.SetPosition
 0001:00040D0C       System.Classes.TReader.SkipBytes
 0001:00040AF4       System.Classes.TReader.SkipComponent
 0001:00040AAC       System.Classes.TReader.SkipProperty
 0001:00040450       System.Classes.TReader.SkipSetBody
 0001:00040558       System.Classes.TReader.SkipValue
 0001:00036C94       System.Classes.TRegGroup.AddClass
 0001:00036CA0       System.Classes.TRegGroup.BestClass
 0001:00036D00       System.Classes.TRegGroup.BestGroup
 0001:00036D70       System.Classes.TRegGroup.Create
 0001:00036DCC       System.Classes.TRegGroup.Destroy
 0001:00036E08       System.Classes.TRegGroup.GetClass
 0001:00036E58       System.Classes.TRegGroup.GetClasses
 0001:00036EA0       System.Classes.TRegGroup.IndexOfClass
 0001:00036F18       System.Classes.TRegGroup.InGroup
 0001:00036F5C       System.Classes.TRegGroup.RegisterClass
 0001:00037010       System.Classes.TRegGroup.RegisterClassAlias
 0001:00037048       System.Classes.TRegGroup.Registered
 0001:00037060       System.Classes.TRegGroup.UnregisterClass
 0001:000370C0       System.Classes.TRegGroup.UnregisterModuleClasses
 0001:00037200       System.Classes.TRegGroups.Activate
 0001:0003724C       System.Classes.TRegGroups.AddClass
 0001:0003726C       System.Classes.TRegGroups.Create
 0001:000372D4       System.Classes.TRegGroups.Destroy
 0001:0003732C       System.Classes.TRegGroups.FindGroup
 0001:00037370       System.Classes.TRegGroups.GetClass
 0001:000373B4       System.Classes.TRegGroups.GroupedWith
 0001:00037458       System.Classes.TRegGroups.GroupWith
 0001:0003752C       System.Classes.TRegGroups.Lock
 0001:00037538       System.Classes.TRegGroups.RegisterClass
 0001:00037550       System.Classes.TRegGroups.RegisterClassAlias
 0001:00037570       System.Classes.TRegGroups.Registered
 0001:000375B4       System.Classes.TRegGroups.StartGroup
 0001:00037604       System.Classes.TRegGroups.Unlock
 0001:0003760C       System.Classes.TRegGroups.UnregisterClass
 0001:0003763C       System.Classes.TRegGroups.UnregisterModuleClasses
 0001:0003D260       System.Classes.TResourceStream.Create
 0001:0003D2B8       System.Classes.TResourceStream.CreateFromID
 0001:0003D418       System.Classes.TResourceStream.Destroy
 0001:0003D3AC       System.Classes.TResourceStream.Initialize
 0001:0003D448       System.Classes.TResourceStream.Write
 0001:0003C6AC       System.Classes.TStream.CopyFrom
 0001:0003CAEC       System.Classes.TStream.FixupResourceHeader
 0001:0003C398       System.Classes.TStream.GetPosition
 0001:0003C3CC       System.Classes.TStream.GetSize
 0001:00031560       System.Classes.TStream.Read
 0001:0003C5EC       System.Classes.TStream.ReadBuffer
 0001:0003C7A0       System.Classes.TStream.ReadComponent
 0001:0003C864       System.Classes.TStream.ReadComponentRes
 0001:0003CBDC       System.Classes.TStream.ReadResHeader
 0001:0003C4F8       System.Classes.TStream.Seek
 0001:0003C57C       System.Classes.TStream.Seek
 0001:0003C3B8       System.Classes.TStream.SetPosition
 0001:0003C430       System.Classes.TStream.SetSize
 0001:0003C418       System.Classes.TStream.SetSize
 0001:0003C41C       System.Classes.TStream.SetSize64
 0001:00031568       System.Classes.TStream.Write
 0001:0003C64C       System.Classes.TStream.WriteBuffer
 0001:0003C800       System.Classes.TStream.WriteComponent
 0001:0003C880       System.Classes.TStream.WriteComponentRes
 0001:0003C808       System.Classes.TStream.WriteDescendent
 0001:0003CBA8       System.Classes.TStream.WriteDescendentRes
 0001:0003C888       System.Classes.TStream.WriteResourceHeader
 0001:0003BBC0       System.Classes.TStringList.Add
 0001:0003BBD0       System.Classes.TStringList.AddObject
 0001:0003BC34       System.Classes.TStringList.Assign
 0001:0003BC70       System.Classes.TStringList.Changed
 0001:0003BC8C       System.Classes.TStringList.Changing
 0001:0003BCA8       System.Classes.TStringList.Clear
 0001:0003C2D8       System.Classes.TStringList.CompareStrings
 0001:0003C2F4       System.Classes.TStringList.Create
 0001:0003C32C       System.Classes.TStringList.Create
 0001:0003C2A0       System.Classes.TStringList.CustomSort
 0001:0003BD80       System.Classes.TStringList.Delete
 0001:0003BACC       System.Classes.TStringList.Destroy
 0001:0003BE18       System.Classes.TStringList.Exchange
 0001:0003BE74       System.Classes.TStringList.ExchangeItems
 0001:0003BE98       System.Classes.TStringList.Find
 0001:0003BF1C       System.Classes.TStringList.Get
 0001:0003BF4C       System.Classes.TStringList.GetCapacity
 0001:0003BF50       System.Classes.TStringList.GetCount
 0001:0003BF54       System.Classes.TStringList.GetObject
 0001:0003BF78       System.Classes.TStringList.Grow
 0001:0003BFAC       System.Classes.TStringList.IndexOf
 0001:0003BFE8       System.Classes.TStringList.Insert
 0001:0003C04C       System.Classes.TStringList.InsertItem
 0001:0003BFF8       System.Classes.TStringList.InsertObject
 0001:0003C0C8       System.Classes.TStringList.Put
 0001:0003C120       System.Classes.TStringList.PutObject
 0001:0003C15C       System.Classes.TStringList.QuickSort
 0001:0003C1F4       System.Classes.TStringList.SetCapacity
 0001:0003C370       System.Classes.TStringList.SetCaseSensitive
 0001:0003C230       System.Classes.TStringList.SetSorted
 0001:0003C250       System.Classes.TStringList.SetUpdateState
 0001:0003C290       System.Classes.TStringList.Sort
 0001:00039E90       System.Classes.TStrings.Add
 0001:00039EB4       System.Classes.TStrings.AddObject
 0001:00039F9C       System.Classes.TStrings.AddStrings
 0001:00039EE4       System.Classes.TStrings.AddStrings
 0001:0003A000       System.Classes.TStrings.AddStrings
 0001:00039ED8       System.Classes.TStrings.Append
 0001:0003A0A4       System.Classes.TStrings.Assign
 0001:0003A180       System.Classes.TStrings.BeginUpdate
 0001:00030790       System.Classes.TStrings.Clear
 0001:0003B850       System.Classes.TStrings.CompareStrings
 0001:00039DD8       System.Classes.TStrings.Create
 0001:0003A1E8       System.Classes.TStrings.DefineProperties
 0001:00030798       System.Classes.TStrings.Delete
 0001:00039E20       System.Classes.TStrings.Destroy
 0001:0003A240       System.Classes.TStrings.EndUpdate
 0001:0003A254       System.Classes.TStrings.Equals
 0001:0003A2FC       System.Classes.TStrings.Error
 0001:0003A380       System.Classes.TStrings.Exchange
 0001:0003A46C       System.Classes.TStrings.ExtractName
 0001:00030788       System.Classes.TStrings.Get
 0001:0003A4E8       System.Classes.TStrings.GetCapacity
 0001:0003A4F0       System.Classes.TStrings.GetCommaText
 0001:0003A588       System.Classes.TStrings.GetDelimitedText
 0001:0003B6AC       System.Classes.TStrings.GetDelimiter
 0001:0003A7F8       System.Classes.TStrings.GetEnumerator
 0001:0003B6C8       System.Classes.TStrings.GetLineBreak
 0001:0003A808       System.Classes.TStrings.GetName
 0001:0003B85C       System.Classes.TStrings.GetNameValueSeparator
 0001:0003A868       System.Classes.TStrings.GetObject
 0001:0003B704       System.Classes.TStrings.GetQuoteChar
 0001:0003B720       System.Classes.TStrings.GetStrictDelimiter
 0001:0003A86C       System.Classes.TStrings.GetText
 0001:0003A8C0       System.Classes.TStrings.GetTextStr
 0001:0003AA04       System.Classes.TStrings.GetValue
 0001:0003B898       System.Classes.TStrings.GetValueFromIndex
 0001:0003AA90       System.Classes.TStrings.IndexOf
 0001:0003AB1C       System.Classes.TStrings.IndexOfName
 0001:0003ABF0       System.Classes.TStrings.IndexOfObject
 0001:000307A0       System.Classes.TStrings.Insert
 0001:0003AC24       System.Classes.TStrings.InsertObject
 0001:0003AC54       System.Classes.TStrings.LoadFromFile
 0001:0003ACA8       System.Classes.TStrings.LoadFromFile
 0001:0003AD10       System.Classes.TStrings.LoadFromStream
 0001:0003AD04       System.Classes.TStrings.LoadFromStream
 0001:0003AE14       System.Classes.TStrings.Move
 0001:0003AED4       System.Classes.TStrings.Put
 0001:0003AF04       System.Classes.TStrings.PutObject
 0001:0003AF08       System.Classes.TStrings.ReadData
 0001:0003AFC8       System.Classes.TStrings.SaveToFile
 0001:0003AFB8       System.Classes.TStrings.SaveToFile
 0001:0003B028       System.Classes.TStrings.SaveToStream
 0001:0003B038       System.Classes.TStrings.SaveToStream
 0001:0003B0F4       System.Classes.TStrings.SetCapacity
 0001:0003B0F8       System.Classes.TStrings.SetCommaText
 0001:0003B738       System.Classes.TStrings.SetDefaultEncoding
 0001:0003B4FC       System.Classes.TStrings.SetDelimitedText
 0001:0003B780       System.Classes.TStrings.SetDelimiter
 0001:0003B7A0       System.Classes.TStrings.SetEncoding
 0001:0003B7E8       System.Classes.TStrings.SetLineBreak
 0001:0003B878       System.Classes.TStrings.SetNameValueSeparator
 0001:0003B814       System.Classes.TStrings.SetQuoteChar
 0001:0003B834       System.Classes.TStrings.SetStrictDelimiter
 0001:0003B190       System.Classes.TStrings.SetStringsAdapter
 0001:0003B1C4       System.Classes.TStrings.SetText
 0001:0003B214       System.Classes.TStrings.SetTextStr
 0001:0003B3C0       System.Classes.TStrings.SetUpdateState
 0001:0003B3C4       System.Classes.TStrings.SetValue
 0001:0003B934       System.Classes.TStrings.SetValueFromIndex
 0001:0003BA7C       System.Classes.TStrings.ToObjectArray
 0001:0003B9E4       System.Classes.TStrings.ToStringArray
 0001:0003B478       System.Classes.TStrings.WriteData
 0001:00039D60       System.Classes.TStringsEnumerator.Create
 0001:00039DA4       System.Classes.TStringsEnumerator.GetCurrent
 0001:00039DBC       System.Classes.TStringsEnumerator.MoveNext
 0001:00038A04       System.Classes.TThreadList.Add
 0001:00038A8C       System.Classes.TThreadList.Clear
 0001:00038930       System.Classes.TThreadList.Create
 0001:00038988       System.Classes.TThreadList.Destroy
 0001:00038AD4       System.Classes.TThreadList.LockList
 0001:00038AF8       System.Classes.TThreadList.Remove
 0001:00038B00       System.Classes.TThreadList.RemoveItem
 0001:00038B54       System.Classes.TThreadList.UnlockList
 0001:00041168       System.Classes.TWriter.AddAncestor
 0001:0004119C       System.Classes.TWriter.DefineBinaryProperty
 0001:00041174       System.Classes.TWriter.DefineProperty
 0001:0004113C       System.Classes.TWriter.Destroy
 0001:000411D8       System.Classes.TWriter.FindMethodName
 0001:00041220       System.Classes.TWriter.FlushBuffer
 0001:00043874       System.Classes.TWriter.GetLookupInfo
 0001:000411C8       System.Classes.TWriter.GetPosition
 0001:00041228       System.Classes.TWriter.SetPosition
 0001:00041264       System.Classes.TWriter.SetRoot
 0001:0004127C       System.Classes.TWriter.Write
 0001:000412C8       System.Classes.TWriter.WriteBinary
 0001:00041368       System.Classes.TWriter.WriteBoolean
 0001:00041350       System.Classes.TWriter.WriteBuffer
 0001:0004137C       System.Classes.TWriter.WriteChar
 0001:0004141C       System.Classes.TWriter.WriteCollection
 0001:0004157C       System.Classes.TWriter.WriteComponent
 0001:00041B24       System.Classes.TWriter.WriteCurrency
 0001:000416D0       System.Classes.TWriter.WriteData
 0001:00041B48       System.Classes.TWriter.WriteDate
 0001:00041A90       System.Classes.TWriter.WriteDescendent
 0001:00041B00       System.Classes.TWriter.WriteDouble
 0001:00041AB8       System.Classes.TWriter.WriteFloat
 0001:00041B6C       System.Classes.TWriter.WriteIdent
 0001:00041DE8       System.Classes.TWriter.WriteInteger
 0001:00041D74       System.Classes.TWriter.WriteInteger
 0001:00041E40       System.Classes.TWriter.WriteListBegin
 0001:00041E48       System.Classes.TWriter.WriteListEnd
 0001:0004364C       System.Classes.TWriter.WriteMinStr
 0001:00041E50       System.Classes.TWriter.WritePrefix
 0001:00041E98       System.Classes.TWriter.WriteProperties
 0001:00043058       System.Classes.TWriter.WriteProperty
 0001:0004358C       System.Classes.TWriter.WritePropName
 0001:000435E0       System.Classes.TWriter.WriteRootComponent
 0001:000435E8       System.Classes.TWriter.WriteSignature
 0001:00041ADC       System.Classes.TWriter.WriteSingle
 0001:000435F8       System.Classes.TWriter.WriteStr
 0001:00043710       System.Classes.TWriter.WriteString
 0001:000437C4       System.Classes.TWriter.WriteUTF8Str
 0001:00043860       System.Classes.TWriter.WriteValue
 0001:000431AC       System.Classes.TWriter.WriteVariant
 0001:000413CC       System.Classes.TWriter.WriteWideChar
 0001:00043858       System.Classes.TWriter.WriteWideString
 0001:000379DC       System.Classes.UnRegisterModuleClasses
 0001:00037B88       System.Classes.WriteCollection
 0001:0004288C       System.Classes.WriteCollectionProp
 0001:00042A28       System.Classes.WriteFloatProp
 0001:00042A68       System.Classes.WriteInt64Prop
 0001:00042E88       System.Classes.WriteInterfaceProp
 0001:00042820       System.Classes.WriteIntProp
 0001:00042F64       System.Classes.WriteMethodProp
 0001:00042C74       System.Classes.WriteObjectProp
 0001:00042930       System.Classes.WriteOrdProp
 0001:00042734       System.Classes.WritePropPath
 0001:0004278C       System.Classes.WriteSet
 0001:00042AA4       System.Classes.WriteStrProp
 0001:00042FF4       System.Classes.WriteVariantProp
 0001:0005EAA8       System.Contnrs..TObjectList
 0001:0005EFB8       System.Contnrs.TObjectList.Add
 0001:0005EFFC       System.Contnrs.TObjectList.Create
 0001:0005EFC0       System.Contnrs.TObjectList.Create
 0001:0005F040       System.Contnrs.TObjectList.Extract
 0001:0005F048       System.Contnrs.TObjectList.ExtractItem
 0001:0005F060       System.Contnrs.TObjectList.FindInstanceOf
 0001:0005F0E8       System.Contnrs.TObjectList.First
 0001:0005F0F0       System.Contnrs.TObjectList.GetItem
 0001:0005F104       System.Contnrs.TObjectList.IndexOf
 0001:0005F10C       System.Contnrs.TObjectList.IndexOfItem
 0001:0005F114       System.Contnrs.TObjectList.Insert
 0001:0005F11C       System.Contnrs.TObjectList.Last
 0001:0005F128       System.Contnrs.TObjectList.Notify
 0001:0005F154       System.Contnrs.TObjectList.Remove
 0001:0005F15C       System.Contnrs.TObjectList.RemoveItem
 0001:0005F164       System.Contnrs.TObjectList.SetItem
 0004:00005290       System.IniFiles..7
 0001:0005BA9C       System.IniFiles.Finalization
 0002:000009F8       System.IniFiles.System.IniFiles
 0003:000029A0       System.IniFiles.TCustomIniFile.SectionNameSeparator
 0003:000029A4       System.IniFiles.Values
 0004:00002C84       System.Internal.ExcUtils..2
 0003:00000DDC       System.Internal.ExcUtils.ExceptMap
 0003:00000D8C       System.Internal.ExcUtils.ExceptTypes
 0001:00013680       System.Internal.ExcUtils.Finalization
 0002:000000D4       System.Internal.ExcUtils.System.Internal.ExcUtils
 0004:0000528C       System.IOUtils..1
 0001:0005B9D4       System.IOUtils.Finalization
 0002:000009F0       System.IOUtils.System.IOUtils
 0004:00005288       System.IOUtils.TPath.$ClassInitFlag
 0002:00000598       System.IOUtils.TPath.Create@
 0001:0005B9CC       System.IOUtils.TPath.Destroy@
 0004:0000526C       System.IOUtils.TPath.FAltDirectorySeparatorChar
 0003:00002990       System.IOUtils.TPath.FCCurrentDir
 0003:00002998       System.IOUtils.TPath.FCExtendedPrefix
 0003:0000299C       System.IOUtils.TPath.FCExtendedUNCPrefix
 0003:00002994       System.IOUtils.TPath.FCParentDir
 0004:0000526E       System.IOUtils.TPath.FDirectorySeparatorChar
 0004:00005274       System.IOUtils.TPath.FExtensionSeparatorChar
 0004:00005284       System.IOUtils.TPath.FFileNameWildCardChars
 0004:0000527C       System.IOUtils.TPath.FInvalidFileNameChars
 0004:00005278       System.IOUtils.TPath.FInvalidPathChars
 0004:00005270       System.IOUtils.TPath.FPathSeparator
 0004:00005280       System.IOUtils.TPath.FPathWildcardChars
 0004:00005272       System.IOUtils.TPath.FVolumeSeparatorChar
 0004:00004F98       System.Math..2
 0001:00045AB8       System.Math.Finalization
 0001:00045A2C       System.Math.GetSSEType
 0001:00045AA0       System.Math.InitSSEType
 0001:000459A8       System.Math.IsNan
 0001:00045A14       System.Math.SetExceptionMask
 0001:000459EC       System.Math.SetFPUExceptionMask
 0002:000004E4       System.Math.System.Math
 0004:00004FCC       System.Rtti..24
 0004:00004FD0       System.Rtti.FCodeHeap
 0001:000482F8       System.Rtti.Finalization
 0003:0000290C       System.Rtti.Kind
 0004:00004FD4       System.Rtti.ModListRemovals
 0001:000482A4       System.Rtti.OnUnloadModule
 0004:00004FDC       System.Rtti.PoolLock
 0004:00004FD8       System.Rtti.StringEqCmpCI
 0002:00000538       System.Rtti.System.Rtti
 0004:00004FB8       System.SyncObjs..71
 0001:000479DC       System.SyncObjs..TCriticalSection
 0001:0004784C       System.SyncObjs..TSynchroObject
 0001:0004829C       System.SyncObjs.Finalization
 0001:00048130       System.SyncObjs.InitConditionVariableProcs
 0004:00004FBC       System.SyncObjs.InitializeConditionVariableProc
 0001:00047D68       System.SyncObjs.InternalInitConditionVariable
 0001:00047D98       System.SyncObjs.InternalSleepConditionVariableCS
 0001:00047D88       System.SyncObjs.InternalWakeAllConditionVariable
 0001:00047D78       System.SyncObjs.InternalWakeConditionVariable
 0004:00004FC0       System.SyncObjs.SleepConditionVariableCSProc
 0002:00000528       System.SyncObjs.System.SyncObjs
 0001:00047D2C       System.SyncObjs.TCriticalSection.Acquire
 0001:00047CBC       System.SyncObjs.TCriticalSection.Create
 0001:00047CFC       System.SyncObjs.TCriticalSection.Destroy
 0001:00047D58       System.SyncObjs.TCriticalSection.Enter
 0001:00047D60       System.SyncObjs.TCriticalSection.Leave
 0001:00047D38       System.SyncObjs.TCriticalSection.Release
 0001:00047D44       System.SyncObjs.TCriticalSection.TryEnter
 0001:00048124       System.SyncObjs.TInterlocked.Add
 0001:00047DB4       System.SyncObjs.TInternalConditionVariable.DequeueWaiter
 0001:00047E0C       System.SyncObjs.TInternalConditionVariable.DequeueWaiterNoLock
 0001:00047E28       System.SyncObjs.TInternalConditionVariable.LockQueue
 0001:00047EA0       System.SyncObjs.TInternalConditionVariable.QueueWaiter
 0001:00047F08       System.SyncObjs.TInternalConditionVariable.RemoveWaiter
 0001:00047F9C       System.SyncObjs.TInternalConditionVariable.SleepCriticalSection
 0001:00048094       System.SyncObjs.TInternalConditionVariable.UnlockQueue
 0001:0004809C       System.SyncObjs.TInternalConditionVariable.Wake
 0001:000480B0       System.SyncObjs.TInternalConditionVariable.WakeAll
 0001:00047BF0       System.SyncObjs.TSynchroObject.Acquire
 0001:00047BFC       System.SyncObjs.TSynchroObject.Release
 0001:00047C04       System.SyncObjs.TSynchroObject.WaitFor
 0001:00047C00       System.SyncObjs.TSynchroObject.WaitFor
 0004:00004FC8       System.SyncObjs.WakeAllConditionVariableProc
 0004:00004FC4       System.SyncObjs.WakeConditionVariableProc
 0004:00002DF0       System.SysUtils..07
 0001:000153B4       System.SysUtils..EAbstractError
 0001:00014FAC       System.SysUtils..EAccessViolation
 0001:0001425C       System.SysUtils..EArgumentException
 0001:00014314       System.SysUtils..EArgumentOutOfRangeException
 0001:00015304       System.SysUtils..EAssertionFailed
 0001:000151B4       System.SysUtils..EControlC
 0001:00014F00       System.SysUtils..EConvertError
 0001:0001486C       System.SysUtils..EDivByZero
 0001:000163C8       System.SysUtils..EEncodingError
 0001:00014648       System.SysUtils..EExternal
 0001:00014710       System.SysUtils..EExternalException
 0001:000143DC       System.SysUtils..EHeapException
 0001:00014584       System.SysUtils..EInOutError
 0001:000147C8       System.SysUtils..EIntError
 0001:00015464       System.SysUtils..EIntfCastError
 0001:000149BC       System.SysUtils..EIntOverflow
 0001:00014E58       System.SysUtils..EInvalidCast
 0001:00014B0C       System.SysUtils..EInvalidOp
 0001:00014DA8       System.SysUtils..EInvalidPointer
 0001:00014A64       System.SysUtils..EMathError
 0001:00015688       System.SysUtils..EMonitor
 0001:00015728       System.SysUtils..EMonitorLockException
 0001:000157E4       System.SysUtils..ENoMonitorSupportException
 0001:000158AC       System.SysUtils..ENotImplemented
 0001:00015514       System.SysUtils..EOSError
 0001:000144DC       System.SysUtils..EOutOfMemory
 0001:00014C5C       System.SysUtils..EOverflow
 0001:0001505C       System.SysUtils..EPrivilege
 0001:00014914       System.SysUtils..ERangeError
 0001:000155D0       System.SysUtils..ESafecallException
 0001:00015104       System.SysUtils..EStackOverflow
 0001:00014D00       System.SysUtils..EUnderflow
 0001:00015258       System.SysUtils..EVariantError
 0001:00013C84       System.SysUtils..Exception
 0001:00014BB4       System.SysUtils..EZeroDivide
 0001:000172A4       System.SysUtils..TBigEndianUnicodeEncoding
 0001:00016478       System.SysUtils..TEncoding
 0001:00013840       System.SysUtils..TLanguages
 0001:00016A38       System.SysUtils..TMBCSEncoding
 0001:000160B0       System.SysUtils..TMultiReadExclusiveWriteSynchronizer
 0001:00015E7C       System.SysUtils..TThreadLocalCounter
 0001:000170C8       System.SysUtils..TUnicodeEncoding
 0001:00016D1C       System.SysUtils..TUTF7Encoding
 0001:00016EE4       System.SysUtils..TUTF8Encoding
 0001:0001DBFC       System.SysUtils.AbstractErrorHandler
 0003:00002618       System.SysUtils.AccessMode
 0001:00019014       System.SysUtils.AddBuf
 0001:000176DC       System.SysUtils.AnsiCompareStr
 0001:00017720       System.SysUtils.AnsiCompareText
 0001:00017948       System.SysUtils.AnsiExtractQuotedStr
 0001:0001E794       System.SysUtils.AnsiPos
 0001:000177D4       System.SysUtils.AnsiQuotedStr
 0001:0001E7F4       System.SysUtils.AnsiStrPos
 0001:0001E7FC       System.SysUtils.AnsiStrRScan
 0001:0001E804       System.SysUtils.AnsiStrScan
 0001:0001AAE0       System.SysUtils.AppendChars
 0001:0001AF88       System.SysUtils.AppendFormat
 0001:0001ABE0       System.SysUtils.AppendNumber
 0001:0001ABC4       System.SysUtils.AppendString
 0001:00018FA0       System.SysUtils.ApplyWidth
 0001:0001DB14       System.SysUtils.AssertErrorHandler
 0001:000189F4       System.SysUtils.BackfillGetDiskFreeSpaceEx
 0001:000183F0       System.SysUtils.BoolToStr
 0001:0001E4A4       System.SysUtils.ByteToCharIndex
 0001:0001E438       System.SysUtils.ByteToCharLen
 0001:0001E390       System.SysUtils.ByteType
 0003:00002770       System.SysUtils.CArchitectures
 0003:0000277C       System.SysUtils.CEditionStr
 0001:0001747C       System.SysUtils.CharInSet
 0001:0001E680       System.SysUtils.CharLength
 0001:0001E5AC       System.SysUtils.CharToByteIndex
 0001:0001E618       System.SysUtils.CharToByteLen
 0001:0001E538       System.SysUtils.CharToElementIndex
 0001:0001E5B4       System.SysUtils.CharToElementLen
 0001:0001E2BC       System.SysUtils.CleanEventList
 0001:0001E288       System.SysUtils.CleanStack
 0001:0001F900       System.SysUtils.ClearHashTables
 0001:00017598       System.SysUtils.CompareMem
 0001:0001752C       System.SysUtils.CompareStr
 0001:0001762C       System.SysUtils.CompareText
 0001:000182BC       System.SysUtils.CompareWith
 0001:0001FCB4       System.SysUtils.ContainsPreamble
 0001:0001D034       System.SysUtils.ConvertAddr
 0001:0001ACD8       System.SysUtils.ConvertEraString
 0001:00017440       System.SysUtils.ConvertError
 0001:00017458       System.SysUtils.ConvertErrorFmt
 0001:0001AE60       System.SysUtils.ConvertYearString
 0001:0001E4AC       System.SysUtils.CountChars
 0001:0001DCB8       System.SysUtils.CreateAVObject
 0001:0001DA48       System.SysUtils.CreateInOutError
 0003:00002610       System.SysUtils.cSimpleBoolStrs
 0004:00002CA1       System.SysUtils.CurrencyDecimals
 0004:00002CA0       System.SysUtils.CurrencyFormat
 0004:00002C9C       System.SysUtils.CurrencyString
 0001:0001AA9C       System.SysUtils.CurrentYear
 0001:0001A2F4       System.SysUtils.CurrToStr
 0003:00002774       System.SysUtils.CVersionStr
 0003:00002670       System.SysUtils.CWNear
 0004:00002CA2       System.SysUtils.DateSeparator
 0001:0001B954       System.SysUtils.DateTimeToStr
 0001:0001B824       System.SysUtils.DateTimeToString
 0001:0001A9C4       System.SysUtils.DateTimeToSystemTime
 0001:0001A4B4       System.SysUtils.DateTimeToTimeStamp
 0001:0001AA74       System.SysUtils.DayOfWeek
 0003:0000266C       System.SysUtils.DCon10
 0004:00002D5A       System.SysUtils.DecimalSeparator
 0001:0001A9A4       System.SysUtils.DecodeDate
 0001:0001A858       System.SysUtils.DecodeDateFully
 0001:0001A6C4       System.SysUtils.DecodeTime
 0003:0000276C       System.SysUtils.DefaultFallbackLanguages
 0003:00002700       System.SysUtils.DefLongDayNames
 0003:000026B4       System.SysUtils.DefLongMonthNames
 0003:000026E4       System.SysUtils.DefShortDayNames
 0003:00002684       System.SysUtils.DefShortMonthNames
 0001:0001869C       System.SysUtils.DirectoryExists
 0001:00017424       System.SysUtils.DivMod
 0001:0001E028       System.SysUtils.DoneExceptions
 0001:0001E2EC       System.SysUtils.DoneMonitorSupport
 0001:0001DA34       System.SysUtils.EHeapException.FreeInstance
 0001:0001DA40       System.SysUtils.EHeapException.RaisingException
 0001:0001E440       System.SysUtils.ElementToCharIndex
 0001:0001E414       System.SysUtils.ElementToCharLen
 0003:00000EAC       System.SysUtils.EmptyAnsiStr
 0003:00000EA4       System.SysUtils.EmptyStr
 0003:00000EA8       System.SysUtils.EmptyWideStr
 0001:0001A828       System.SysUtils.EncodeDate
 0001:0001A684       System.SysUtils.EncodeTime
 0003:00001308       System.SysUtils.EncodingDataList
 0003:00000F1C       System.SysUtils.EncodingHashList
 0003:000016F4       System.SysUtils.EncodingNameList
 0001:0001CECC       System.SysUtils.EnumEraNames
 0001:0001CF08       System.SysUtils.EnumEraYearOffsets
 0001:0001F4B8       System.SysUtils.EnumLocalesCallback
 0001:00018484       System.SysUtils.EnumStringModules
 0004:00002D70       System.SysUtils.EraNames
 0001:0001BC04       System.SysUtils.EraToYear
 0004:00002D8C       System.SysUtils.EraYearOffsets
 0001:0001DAA8       System.SysUtils.ErrorHandler
 0003:0000271C       System.SysUtils.ErrorMap
 0004:00002E00       System.SysUtils.EventCache
 0004:00002F04       System.SysUtils.EventItemHolders
 0001:0001DF88       System.SysUtils.ExceptHandler
 0004:00002C8C       System.SysUtils.Exception.$ClassInitFlag
 0004:00002C98       System.SysUtils.Exception.CleanUpStackInfoProc
 0001:0001D37C       System.SysUtils.Exception.Create
 0002:00000104       System.SysUtils.Exception.Create@
 0001:0001D3B8       System.SysUtils.Exception.CreateFmt
 0001:0001D65C       System.SysUtils.Exception.CreateFmtHelp
 0001:0001D614       System.SysUtils.Exception.CreateHelp
 0001:0001D438       System.SysUtils.Exception.CreateRes
 0001:0001D4B0       System.SysUtils.Exception.CreateRes
 0001:0001D4EC       System.SysUtils.Exception.CreateResFmt
 0001:0001D580       System.SysUtils.Exception.CreateResFmt
 0001:0001D7AC       System.SysUtils.Exception.CreateResFmtHelp
 0001:0001D848       System.SysUtils.Exception.CreateResFmtHelp
 0001:0001D6E4       System.SysUtils.Exception.CreateResHelp
 0001:0001D764       System.SysUtils.Exception.CreateResHelp
 0001:0001D8E4       System.SysUtils.Exception.Destroy
 0001:0001E0A8       System.SysUtils.Exception.Destroy@
 0001:0001D928       System.SysUtils.Exception.GetBaseException
 0004:00002C90       System.SysUtils.Exception.GetExceptionStackInfoProc
 0004:00002C94       System.SysUtils.Exception.GetStackInfoStringProc
 0001:0001D934       System.SysUtils.Exception.GetStackTrace
 0001:0001D95C       System.SysUtils.Exception.RaiseOuterException
 0001:0001D984       System.SysUtils.Exception.RaisingException
 0001:0001D9B0       System.SysUtils.Exception.SetInnerException
 0001:0001D9D8       System.SysUtils.Exception.SetStackInfo
 0001:0001D970       System.SysUtils.Exception.ThrowOuterException
 0001:0001D9DC       System.SysUtils.Exception.ToString
 0001:0001D040       System.SysUtils.ExceptionErrorMessage
 0003:00002638       System.SysUtils.Exclusive
 0001:00018960       System.SysUtils.ExpandFileName
 0001:0001890C       System.SysUtils.ExtractFileExt
 0001:000188CC       System.SysUtils.ExtractFileName
 0004:00002DAC       System.SysUtils.FalseBoolStrs
 0003:00002660       System.SysUtils.FCon1E18
 0001:000185A0       System.SysUtils.FileCreate
 0001:00018548       System.SysUtils.FileOpen
 0001:000185F4       System.SysUtils.FileRead
 0001:0001864C       System.SysUtils.FileSeek
 0001:00018620       System.SysUtils.FileWrite
 0001:00021338       System.SysUtils.Finalization
 0001:00018868       System.SysUtils.FindClose
 0001:000187F4       System.SysUtils.FindFirst
 0001:0001876C       System.SysUtils.FindMatchingFile
 0001:00018844       System.SysUtils.FindNext
 0001:000184C0       System.SysUtils.FindStringResource
 0001:0001CBD0       System.SysUtils.FixDateSeparator
 0004:00004EF0       System.SysUtils.FLanguages
 0001:00019F48       System.SysUtils.FloatToDecimal
 0001:0001A2C0       System.SysUtils.FloatToStr
 0001:00019C28       System.SysUtils.FloatToText
 0003:00002674       System.SysUtils.FMSecsPerDay
 0001:00018EA8       System.SysUtils.FmtStr
 0001:00018E90       System.SysUtils.Format
 0001:00018E68       System.SysUtils.Format
 0003:0000267C       System.SysUtils.Format
 0001:00018DC0       System.SysUtils.FormatBuf
 0001:00018DE0       System.SysUtils.FormatBuf
 0001:00018D64       System.SysUtils.FormatError
 0003:00002654       System.SysUtils.FormatErrorStrs
 0001:0001F398       System.SysUtils.FreeAndNil
 0001:0001E1B4       System.SysUtils.FreeSyncObj
 0001:0001EED0       System.SysUtils.FreeTerminateProcs
 0001:0001E21C       System.SysUtils.FreeWaitObj
 0005:00000008       System.SysUtils.FTempLanguages
 0001:0001F958       System.SysUtils.GetCodePageFromEncodingName
 0001:0001AC2C       System.SysUtils.GetCount
 0001:0001AC60       System.SysUtils.GetDate
 0001:0001BAFC       System.SysUtils.GetDateOrder
 0003:00000F18       System.SysUtils.GetDiskFreeSpaceEx
 0001:0001F930       System.SysUtils.GetEncodingHashIndex
 0001:0001CF80       System.SysUtils.GetEraNamesAndYearOffsets
 0001:0001BBB0       System.SysUtils.GetEraYearOffset
 0001:0001DC94       System.SysUtils.GetExceptionClass
 0001:0001DE84       System.SysUtils.GetExceptionObject
 0001:0001E8FC       System.SysUtils.GetFormatSettings
 0001:0001C540       System.SysUtils.GetLocaleChar
 0001:0001F4D4       System.SysUtils.GetLocaleDataW
 0001:0001C4F4       System.SysUtils.GetLocaleStr
 0001:0001AC98       System.SysUtils.GetTime
 0001:0001ECC0       System.SysUtils.HashName
 0001:0001EC28       System.SysUtils.HashNameMBCS
 0003:00000F14       System.SysUtils.HexDisplayPrefix
 0003:00002678       System.SysUtils.IMSecsPerDay
 0001:0001E744       System.SysUtils.IncludeTrailingPathDelimiter
 0001:0001EEF4       System.SysUtils.InitDriveSpacePtr
 0001:0001DF98       System.SysUtils.InitExceptions
 0001:0001E80C       System.SysUtils.InitLeadBytes
 0001:0001E27C       System.SysUtils.InitMonitorSupport
 0001:0001E320       System.SysUtils.InitPlatformId
 0001:0001E868       System.SysUtils.InitSysLocale
 0001:000173DC       System.SysUtils.InterlockedAdd
 0001:000173E8       System.SysUtils.InterlockedCompareExchange
 0001:000173F0       System.SysUtils.InterlockedCompareExchangePointer
 0001:000173F8       System.SysUtils.InterlockedDecrement
 0001:00017404       System.SysUtils.InterlockedExchange
 0001:00017410       System.SysUtils.InterlockedExchangePointer
 0001:00017418       System.SysUtils.InterlockedIncrement
 0001:00018168       System.SysUtils.IntToHex
 0001:0001814C       System.SysUtils.IntToHex
 0001:00017F8C       System.SysUtils.IntToStr
 0001:00017FB4       System.SysUtils.IntToStr
 0004:00002DFC       System.SysUtils.InvalidPointer
 0001:0001A720       System.SysUtils.IsLeapYear
 0001:0001E6F8       System.SysUtils.IsPathDelimiter
 0001:00017AA8       System.SysUtils.IsValidIdent
 0004:00004EF4       System.SysUtils.LanguageArray
 0001:0001F8E0       System.SysUtils.Languages
 0001:00018884       System.SysUtils.LastDelimiter
 0003:00000EF4       System.SysUtils.LeadBytes
 0004:00002CA6       System.SysUtils.ListSeparator
 0001:00018534       System.SysUtils.LoadStr
 0004:00002CAC       System.SysUtils.LongDateFormat
 0004:00002D3C       System.SysUtils.LongDayNames
 0004:00002CF0       System.SysUtils.LongMonthNames
 0004:00002CBC       System.SysUtils.LongTimeFormat
 0001:000174DC       System.SysUtils.LowerCase
 0001:0001DC14       System.SysUtils.MapException
 0001:0001ECF8       System.SysUtils.ModuleUnloaded
 0003:00002754       System.SysUtils.MonitorSupport
 0003:00000EC4       System.SysUtils.MonthDays
 0001:0001A5C8       System.SysUtils.MSecsToTimeStamp
 0004:00002D5E       System.SysUtils.NegCurrFormat
 0001:0001E14C       System.SysUtils.NewSyncObj
 0001:0001E1DC       System.SysUtils.NewWaitObj
 0001:0001E6B8       System.SysUtils.NextCharIndex
 0004:00002DF4       System.SysUtils.NTQueryObject
 0004:00002DF8       System.SysUtils.OutOfMemory
 0001:0001E12C       System.SysUtils.Pop
 0001:0001E10C       System.SysUtils.Push
 0001:00019BC4       System.SysUtils.PutExponent
 0001:0001DF64       System.SysUtils.RaiseExceptObject
 0001:0001EE28       System.SysUtils.RaiseLastOSError
 0001:0001EE1C       System.SysUtils.RaiseLastOSError
 0001:0001B96C       System.SysUtils.ScanBlanks
 0001:0001BAC4       System.SysUtils.ScanChar
 0001:0001BC60       System.SysUtils.ScanDate
 0001:0001B994       System.SysUtils.ScanNumber
 0001:0001BA2C       System.SysUtils.ScanString
 0001:0001BFBC       System.SysUtils.ScanTime
 0001:0001BB50       System.SysUtils.ScanToNumber
 0003:00002624       System.SysUtils.ShareMode
 0003:00002640       System.SysUtils.ShareMode
 0004:00002CA8       System.SysUtils.ShortDateFormat
 0004:00002D20       System.SysUtils.ShortDayNames
 0004:00002CC0       System.SysUtils.ShortMonthNames
 0004:00002CB8       System.SysUtils.ShortTimeFormat
 0001:0001D238       System.SysUtils.ShowException
 0001:0001EE14       System.SysUtils.Sleep
 0001:0001E3E0       System.SysUtils.StrByteType
 0001:0001E620       System.SysUtils.StrCharLength
 0001:00018AD0       System.SysUtils.StrComp
 0001:00018A68       System.SysUtils.StrEnd
 0001:00018B5C       System.SysUtils.StrLComp
 0001:00018A94       System.SysUtils.StrLCopy
 0001:00018E1C       System.SysUtils.StrLFmt
 0001:00018E00       System.SysUtils.StrLFmt
 0001:00018BA4       System.SysUtils.StrLIComp
 0001:00018A84       System.SysUtils.StrMove
 0001:00018D38       System.SysUtils.StrNew
 0001:0001E650       System.SysUtils.StrNextChar
 0001:00018C68       System.SysUtils.StrPos
 0001:00018CC0       System.SysUtils.StrPosLen
 0001:00018C38       System.SysUtils.StrRScan
 0001:00018C1C       System.SysUtils.StrScan
 0001:00018188       System.SysUtils.StrToInt
 0001:000181C4       System.SysUtils.StrToIntDef
 0001:0001F464       System.SysUtils.Supports
 0001:0001F3CC       System.SysUtils.Supports
 0001:0001F3A8       System.SysUtils.Supports
 0004:00002E04       System.SysUtils.SyncEventCache
 0001:0001C458       System.SysUtils.SysErrorMessage
 0004:00002D5F       System.SysUtils.SysLocale
 0002:000002E0       System.SysUtils.System.SysUtils
 0001:0001AA04       System.SysUtils.SystemTimeToDateTime
 0001:00020F48       System.SysUtils.TBigEndianUnicodeEncoding.Clone
 0001:00020F58       System.SysUtils.TBigEndianUnicodeEncoding.GetBytes
 0001:00020F8C       System.SysUtils.TBigEndianUnicodeEncoding.GetChars
 0001:00020FC8       System.SysUtils.TBigEndianUnicodeEncoding.GetCodePage
 0001:00020FD0       System.SysUtils.TBigEndianUnicodeEncoding.GetEncodingName
 0001:0002102C       System.SysUtils.TBigEndianUnicodeEncoding.GetPreamble
 0004:00002DC8       System.SysUtils.TEncoding.$ClassInitFlag
 0001:0001FA8C       System.SysUtils.TEncoding.Clone
 0001:0001FA90       System.SysUtils.TEncoding.Convert
 0001:0001FB10       System.SysUtils.TEncoding.Convert
 0002:000000FC       System.SysUtils.TEncoding.Create@
 0001:0001FB98       System.SysUtils.TEncoding.Destroy@
 0004:00002DB0       System.SysUtils.TEncoding.FANSIEncoding
 0004:00002DB4       System.SysUtils.TEncoding.FASCIIEncoding
 0004:00002DB8       System.SysUtils.TEncoding.FBigEndianUnicodeEncoding
 0001:0001FBAC       System.SysUtils.TEncoding.FreeEncodings
 0004:00002DBC       System.SysUtils.TEncoding.FUnicodeEncoding
 0004:00002DC0       System.SysUtils.TEncoding.FUTF7Encoding
 0004:00002DC4       System.SysUtils.TEncoding.FUTF8Encoding
 0001:0001FC1C       System.SysUtils.TEncoding.GetANSI
 0001:0001FC60       System.SysUtils.TEncoding.GetBigEndianUnicode
 0001:0001FD10       System.SysUtils.TEncoding.GetBufferEncoding
 0001:0001FC98       System.SysUtils.TEncoding.GetBufferEncoding
 0001:0001FE2C       System.SysUtils.TEncoding.GetByteCount
 0001:0001FEF4       System.SysUtils.TEncoding.GetByteCount
 0001:0001FF1C       System.SysUtils.TEncoding.GetByteCount
 0001:0001FE48       System.SysUtils.TEncoding.GetByteCount
 0001:000201D4       System.SysUtils.TEncoding.GetBytes
 0001:0002006C       System.SysUtils.TEncoding.GetBytes
 0001:00020024       System.SysUtils.TEncoding.GetBytes
 0001:0001FFCC       System.SysUtils.TEncoding.GetBytes
 0001:00020224       System.SysUtils.TEncoding.GetBytes
 0001:0002038C       System.SysUtils.TEncoding.GetCharCount
 0001:00020370       System.SysUtils.TEncoding.GetCharCount
 0001:000204C4       System.SysUtils.TEncoding.GetChars
 0001:000205C4       System.SysUtils.TEncoding.GetChars
 0001:00020458       System.SysUtils.TEncoding.GetChars
 0001:00020710       System.SysUtils.TEncoding.GetCodePage
 0001:00020714       System.SysUtils.TEncoding.GetDefault
 0001:0002071C       System.SysUtils.TEncoding.GetEncoding
 0001:0002077C       System.SysUtils.TEncoding.GetEncoding
 0001:000207F8       System.SysUtils.TEncoding.GetEncodingName
 0001:00016A20       System.SysUtils.TEncoding.GetMaxByteCount
 0001:00016A28       System.SysUtils.TEncoding.GetMaxCharCount
 0001:00016A30       System.SysUtils.TEncoding.GetPreamble
 0001:00020804       System.SysUtils.TEncoding.GetString
 0001:00020828       System.SysUtils.TEncoding.GetString
 0001:00020898       System.SysUtils.TEncoding.GetUnicode
 0001:000208D0       System.SysUtils.TEncoding.GetUTF8
 0001:00020908       System.SysUtils.TEncoding.IsStandardEncoding
 0003:00002768       System.SysUtils.TerminateProcList
 0001:0001A174       System.SysUtils.TextToFloat
 0001:0001CA00       System.SysUtils.TFormatSettings.AdjustLocaleName
 0001:0001C56C       System.SysUtils.TFormatSettings.Create
 0001:0001C9F0       System.SysUtils.TFormatSettings.Create
 0001:0001C948       System.SysUtils.TFormatSettings.Create
 0001:0001CA34       System.SysUtils.TFormatSettings.GetDayNames
 0001:0001CAF0       System.SysUtils.TFormatSettings.GetMonthNames
 0001:0001CB94       System.SysUtils.TFormatSettings.GetString
 0001:0001CC00       System.SysUtils.TFormatSettings.TranslateDateFormat
 0004:00002D58       System.SysUtils.ThousandSeparator
 0004:00002CB0       System.SysUtils.TimeAMString
 0004:00002CB4       System.SysUtils.TimePMString
 0004:00002CA4       System.SysUtils.TimeSeparator
 0001:0001A58C       System.SysUtils.TimeStampToDateTime
 0001:0001A5F4       System.SysUtils.TimeStampToMSecs
 0004:00002C88       System.SysUtils.TLanguages.$ClassInitFlag
 0001:0001F694       System.SysUtils.TLanguages.Create
 0002:000000F4       System.SysUtils.TLanguages.Create@
 0001:0001F6E0       System.SysUtils.TLanguages.Destroy
 0001:0001F8C4       System.SysUtils.TLanguages.Destroy@
 0001:0001F704       System.SysUtils.TLanguages.GetCount
 0001:0001F710       System.SysUtils.TLanguages.GetExt
 0001:0001F730       System.SysUtils.TLanguages.GetID
 0001:0001F79C       System.SysUtils.TLanguages.GetLocaleID
 0001:0001F7A8       System.SysUtils.TLanguages.GetLocaleName
 0001:0001F7C8       System.SysUtils.TLanguages.GetName
 0001:0001F830       System.SysUtils.TLanguages.GetNameFromLCID
 0001:0001F7E8       System.SysUtils.TLanguages.GetNameFromLocaleID
 0001:0001F884       System.SysUtils.TLanguages.IndexOf
 0001:0001F854       System.SysUtils.TLanguages.IndexOf
 0001:0001F50C       System.SysUtils.TLanguages.LocalesCallback
 0001:00020A5C       System.SysUtils.TMBCSEncoding.Clone
 0001:000209D0       System.SysUtils.TMBCSEncoding.Create
 0001:00020944       System.SysUtils.TMBCSEncoding.Create
 0001:00020988       System.SysUtils.TMBCSEncoding.Create
 0001:00020A80       System.SysUtils.TMBCSEncoding.GetByteCount
 0001:00020A98       System.SysUtils.TMBCSEncoding.GetBytes
 0001:00020ABC       System.SysUtils.TMBCSEncoding.GetCharCount
 0001:00020AD0       System.SysUtils.TMBCSEncoding.GetChars
 0001:00020AF0       System.SysUtils.TMBCSEncoding.GetCodePage
 0001:00020AF4       System.SysUtils.TMBCSEncoding.GetEncodingName
 0001:00020B34       System.SysUtils.TMBCSEncoding.GetMaxByteCount
 0001:00020B3C       System.SysUtils.TMBCSEncoding.GetMaxCharCount
 0001:00020B40       System.SysUtils.TMBCSEncoding.GetPreamble
 0001:0001F2C0       System.SysUtils.TMultiReadExclusiveWriteSynchronizer.BeginRead
 0001:0001F1B8       System.SysUtils.TMultiReadExclusiveWriteSynchronizer.BeginWrite
 0001:0001F174       System.SysUtils.TMultiReadExclusiveWriteSynchronizer.BlockReaders
 0001:0001F0B8       System.SysUtils.TMultiReadExclusiveWriteSynchronizer.Create
 0001:0001F12C       System.SysUtils.TMultiReadExclusiveWriteSynchronizer.Destroy
 0001:0001F330       System.SysUtils.TMultiReadExclusiveWriteSynchronizer.EndRead
 0001:0001F270       System.SysUtils.TMultiReadExclusiveWriteSynchronizer.EndWrite
 0001:0001F18C       System.SysUtils.TMultiReadExclusiveWriteSynchronizer.UnblockOneWriter
 0001:0001F180       System.SysUtils.TMultiReadExclusiveWriteSynchronizer.UnblockReaders
 0001:0001F198       System.SysUtils.TMultiReadExclusiveWriteSynchronizer.WaitForReadSignal
 0001:0001F1A8       System.SysUtils.TMultiReadExclusiveWriteSynchronizer.WaitForWriteSignal
 0004:00002DEC       System.SysUtils.TOSVersion.$ClassInitFlag
 0001:000210AC       System.SysUtils.TOSVersion.Check
 0002:00000114       System.SysUtils.TOSVersion.Create@
 0001:000173D4       System.SysUtils.TOSVersion.Destroy@
 0004:00002DCC       System.SysUtils.TOSVersion.FArchitecture
 0004:00002DD0       System.SysUtils.TOSVersion.FBuild
 0004:00002DD4       System.SysUtils.TOSVersion.FMajor
 0004:00002DD8       System.SysUtils.TOSVersion.FMinor
 0004:00002DDC       System.SysUtils.TOSVersion.FName
 0004:00002DE0       System.SysUtils.TOSVersion.FPlatform
 0004:00002DE4       System.SysUtils.TOSVersion.FServicePackMajor
 0004:00002DE8       System.SysUtils.TOSVersion.FServicePackMinor
 0001:00017764       System.SysUtils.Trim
 0004:00002DA8       System.SysUtils.TrueBoolStrs
 0001:0001A75C       System.SysUtils.TryEncodeDate
 0001:0001A60C       System.SysUtils.TryEncodeTime
 0001:00018348       System.SysUtils.TryStrToBool
 0001:0001A43C       System.SysUtils.TryStrToCurr
 0001:0001C1BC       System.SysUtils.TryStrToDate
 0001:0001C23C       System.SysUtils.TryStrToDateTime
 0001:0001A354       System.SysUtils.TryStrToFloat
 0001:0001A334       System.SysUtils.TryStrToFloat
 0001:0001A3C8       System.SysUtils.TryStrToFloat
 0001:0001A328       System.SysUtils.TryStrToFloat
 0001:000181DC       System.SysUtils.TryStrToInt
 0001:000181FC       System.SysUtils.TryStrToInt64
 0001:0001C1FC       System.SysUtils.TryStrToTime
 0001:0001F05C       System.SysUtils.TThreadLocalCounter.Close
 0001:0001F064       System.SysUtils.TThreadLocalCounter.Delete
 0001:0001EF70       System.SysUtils.TThreadLocalCounter.Destroy
 0001:0001EFC8       System.SysUtils.TThreadLocalCounter.HashIndex
 0001:0001EFE4       System.SysUtils.TThreadLocalCounter.Open
 0001:0001F074       System.SysUtils.TThreadLocalCounter.Recycle
 0001:00020E08       System.SysUtils.TUnicodeEncoding.Clone
 0001:00020DDC       System.SysUtils.TUnicodeEncoding.Create
 0001:00020E18       System.SysUtils.TUnicodeEncoding.GetByteCount
 0001:00020E20       System.SysUtils.TUnicodeEncoding.GetBytes
 0001:00020E3C       System.SysUtils.TUnicodeEncoding.GetCharCount
 0001:00020E48       System.SysUtils.TUnicodeEncoding.GetChars
 0001:00020E68       System.SysUtils.TUnicodeEncoding.GetCodePage
 0001:00020E70       System.SysUtils.TUnicodeEncoding.GetEncodingName
 0001:00020EB0       System.SysUtils.TUnicodeEncoding.GetMaxByteCount
 0001:00020EB8       System.SysUtils.TUnicodeEncoding.GetMaxCharCount
 0001:00020EC8       System.SysUtils.TUnicodeEncoding.GetPreamble
 0001:00020CD8       System.SysUtils.TUTF7Encoding.Clone
 0001:00020C98       System.SysUtils.TUTF7Encoding.Create
 0001:00020CE8       System.SysUtils.TUTF7Encoding.GetMaxByteCount
 0001:00020CF0       System.SysUtils.TUTF7Encoding.GetMaxCharCount
 0001:00020D38       System.SysUtils.TUTF8Encoding.Clone
 0001:00020CF4       System.SysUtils.TUTF8Encoding.Create
 0001:00020D48       System.SysUtils.TUTF8Encoding.GetMaxByteCount
 0001:00020D50       System.SysUtils.TUTF8Encoding.GetMaxCharCount
 0001:00020D54       System.SysUtils.TUTF8Encoding.GetPreamble
 0003:0000207E       System.SysUtils.TwoDigitLookup
 0004:00002D5C       System.SysUtils.TwoDigitYearCenturyWindow
 0003:0000220E       System.SysUtils.TwoHexLookup
 0001:0001800C       System.SysUtils.UIntToStr
 0001:00017FF8       System.SysUtils.UIntToStr
 0004:00003EFC       System.SysUtils.UnitHashBuckets
 0001:0001748C       System.SysUtils.UpperCase
 0004:00002F08       System.SysUtils.ValidatedUnitHashBuckets
 0001:0001A548       System.SysUtils.ValidateMSec
 0001:0001A500       System.SysUtils.ValidateTimeStamp
 0001:0001A45C       System.SysUtils.ValidateTimeStampDate
 0001:00019194       System.SysUtils.VariantToUnicodeString
 0001:0001821C       System.SysUtils.VerifyBoolStrArray
 0001:0001E0B8       System.SysUtils.WaitForSyncWaitObj
 0001:0001E248       System.SysUtils.WaitOrSignalObj
 0001:000191E0       System.SysUtils.WideFormatBuf
 0001:00018D20       System.SysUtils.WideStrAlloc
 0003:00000EBC       System.SysUtils.Win32BuildNumber
 0001:0001EEC0       System.SysUtils.Win32Check
 0003:00000EC0       System.SysUtils.Win32CSDVersion
 0003:00000EB4       System.SysUtils.Win32MajorVersion
 0003:00000EB8       System.SysUtils.Win32MinorVersion
 0003:00000EB0       System.SysUtils.Win32Platform
 0001:00018028       System.SysUtils._IntToHex
 0001:00017B80       System.SysUtils._IntToStr32
 0001:00017C7C       System.SysUtils._IntToStr64
 0004:00004F9C       System.TimeSpan.TTimeSpan.$ClassInitFlag
 0001:00046E4C       System.TimeSpan.TTimeSpan.&op_Addition
 0001:00046EB8       System.TimeSpan.TTimeSpan.&op_Addition
 0001:00046E34       System.TimeSpan.TTimeSpan.&op_Addition
 0001:00046F7C       System.TimeSpan.TTimeSpan.&op_Equality
 0001:00046F94       System.TimeSpan.TTimeSpan.&op_Explicit
 0001:000470DC       System.TimeSpan.TTimeSpan.&op_GreaterThan
 0001:000470F8       System.TimeSpan.TTimeSpan.&op_GreaterThanOrEqual
 0001:00047114       System.TimeSpan.TTimeSpan.&op_Implicit
 0001:00047330       System.TimeSpan.TTimeSpan.&op_Inequality
 0001:0004725C       System.TimeSpan.TTimeSpan.&op_LessThan
 0001:00047278       System.TimeSpan.TTimeSpan.&op_LessThanOrEqual
 0001:000473B8       System.TimeSpan.TTimeSpan.&op_Subtraction
 0001:00047778       System.TimeSpan.TTimeSpan.&op_Subtraction
 0001:0004731C       System.TimeSpan.TTimeSpan.&op_UnaryNegation
 0001:000473AC       System.TimeSpan.TTimeSpan.&op_UnaryPlus
 0001:00046D68       System.TimeSpan.TTimeSpan.Add
 0001:00046B28       System.TimeSpan.TTimeSpan.Create
 0001:00046C3C       System.TimeSpan.TTimeSpan.Create
 0001:00046C1C       System.TimeSpan.TTimeSpan.Create
 0001:00046B3C       System.TimeSpan.TTimeSpan.Create
 0002:000004F4       System.TimeSpan.TTimeSpan.Create@
 0001:00045AC0       System.TimeSpan.TTimeSpan.Destroy@
 0001:00046ED8       System.TimeSpan.TTimeSpan.Duration
 0004:00004FA8       System.TimeSpan.TTimeSpan.FMaxValue
 0004:00004FA0       System.TimeSpan.TTimeSpan.FMinValue
 0001:00046FA8       System.TimeSpan.TTimeSpan.FromDays
 0001:00046FC8       System.TimeSpan.TTimeSpan.FromHours
 0001:00046FE8       System.TimeSpan.TTimeSpan.FromMilliseconds
 0001:00047008       System.TimeSpan.TTimeSpan.FromMinutes
 0001:00047028       System.TimeSpan.TTimeSpan.FromSeconds
 0001:00047048       System.TimeSpan.TTimeSpan.FromTicks
 0004:00004FB0       System.TimeSpan.TTimeSpan.FZero
 0001:00047128       System.TimeSpan.TTimeSpan.GetScaledInterval
 0001:00047060       System.TimeSpan.TTimeSpan.GetTotalMilliseconds
 0001:00047294       System.TimeSpan.TTimeSpan.Negate
 0001:00047348       System.TimeSpan.TTimeSpan.Parse
 0001:000473D0       System.TimeSpan.TTimeSpan.Subtract
 0001:00047718       System.TimeSpan.TTimeSpan.Subtract
 0001:0004749C       System.TimeSpan.TTimeSpan.ToString
 0001:00047684       System.TimeSpan.TTimeSpan.TryParse
 0001:00046340       System.TimeSpan.TTimeSpanParser.Convert
 0001:00046518       System.TimeSpan.TTimeSpanParser.ConvertTime
 0001:00046298       System.TimeSpan.TTimeSpanParser.CurrentChar
 0001:000462C0       System.TimeSpan.TTimeSpanParser.NextChar
 0001:00046410       System.TimeSpan.TTimeSpanParser.NextInt
 0001:00046300       System.TimeSpan.TTimeSpanParser.NextNonDigit
 0001:00046830       System.TimeSpan.TTimeSpanParser.SkipWhite
 0001:000468BC       System.TimeSpan.TTimeSpanParser.TryConvert
 0004:00004F70       System.TypInfo..5
 0001:0002BAE4       System.TypInfo..{System.TypInfo}TPropSet<System.Comp>
 0001:0002BC4C       System.TypInfo..{System.TypInfo}TPropSet<System.Currency>
 0001:0002B808       System.TypInfo..{System.TypInfo}TPropSet<System.Double>
 0001:0002B974       System.TypInfo..{System.TypInfo}TPropSet<System.Extended>
 0001:0002BF14       System.TypInfo..{System.TypInfo}TPropSet<System.IInterface>
 0001:0002B69C       System.TypInfo..{System.TypInfo}TPropSet<System.Single>
 0001:0002B524       System.TypInfo..{System.TypInfo}TPropSet<System.string>
 0001:0002B3A4       System.TypInfo..{System.TypInfo}TPropSet<System.WideString>
 0001:0002B310       System.TypInfo.AssignVariant
 0003:000028D0       System.TypInfo.BooleanIdents
 0003:000028D8       System.TypInfo.DotSep
 0001:0002BEC4       System.TypInfo.Finalization
 0001:0002AD34       System.TypInfo.GetAnsiStrProp
 0001:0002A384       System.TypInfo.GetEnumName
 0001:0002A518       System.TypInfo.GetEnumNameValue
 0001:0002A590       System.TypInfo.GetEnumValue
 0001:0002B184       System.TypInfo.GetFloatProp
 0001:0002BE34       System.TypInfo.GetInt64Prop
 0001:0002BE98       System.TypInfo.GetInterfaceProp
 0001:0002AB4C       System.TypInfo.GetLongStrProp
 0001:0002BDBC       System.TypInfo.GetMethodProp
 0001:0002A84C       System.TypInfo.GetOrdProp
 0001:0002A774       System.TypInfo.GetPropInfo
 0001:0002A7C8       System.TypInfo.GetPropInfos
 0001:0002A328       System.TypInfo.GetPropName
 0001:0002A91C       System.TypInfo.GetSetElementName
 0001:0002A9B0       System.TypInfo.GetSetElementValue
 0001:0002AA50       System.TypInfo.GetShortStrProp
 0001:0002AAE8       System.TypInfo.GetShortStrPropAsLongStr
 0001:0002A378       System.TypInfo.GetTypeData
 0001:0002AF04       System.TypInfo.GetUnicodeStrProp
 0001:0002AC80       System.TypInfo.GetUnicodeStrPropAsLongStr
 0001:0002B324       System.TypInfo.GetVariantProp
 0001:0002ADBC       System.TypInfo.GetWideStrProp
 0001:0002ABCC       System.TypInfo.GetWideStrPropAsLongStr
 0001:0002A6C0       System.TypInfo.InternalGetPropInfo
 0001:0002A81C       System.TypInfo.IsStoredProp
 0001:0002AD80       System.TypInfo.SetAnsiStrProp
 0001:0002B244       System.TypInfo.SetFloatProp
 0001:0002BE5C       System.TypInfo.SetInt64Prop
 0001:0002BEB4       System.TypInfo.SetInterfaceProp
 0001:0002AB8C       System.TypInfo.SetLongStrProp
 0001:0002BDFC       System.TypInfo.SetMethodProp
 0001:0002A8C0       System.TypInfo.SetOrdProp
 0001:0002AFB0       System.TypInfo.SetRawByteStrProp
 0001:0002AA94       System.TypInfo.SetShortStrProp
 0001:0002AB18       System.TypInfo.SetShortStrPropAsLongStr
 0001:0002B0BC       System.TypInfo.SetUnicodeStrProp
 0001:0002ACDC       System.TypInfo.SetUnicodeStrPropAsLongStr
 0001:0002B364       System.TypInfo.SetVariantProp
 0001:0002AE64       System.TypInfo.SetWideStrProp
 0001:0002AC28       System.TypInfo.SetWideStrPropAsLongStr
 0002:0000044C       System.TypInfo.System.TypInfo
 0001:0002A4B8       System.TypInfo.UTF8SameText
 0001:0002C5F0       System.TypInfo.{System.TypInfo}TPropSet<System.Comp>.GetProc
 0001:0002C67C       System.TypInfo.{System.TypInfo}TPropSet<System.Comp>.SetProc
 0001:0002C704       System.TypInfo.{System.TypInfo}TPropSet<System.Currency>.GetProc
 0001:0002C790       System.TypInfo.{System.TypInfo}TPropSet<System.Currency>.SetProc
 0001:0002C3AC       System.TypInfo.{System.TypInfo}TPropSet<System.Double>.GetProc
 0001:0002C438       System.TypInfo.{System.TypInfo}TPropSet<System.Double>.SetProc
 0001:0002C4C0       System.TypInfo.{System.TypInfo}TPropSet<System.Extended>.GetProc
 0001:0002C554       System.TypInfo.{System.TypInfo}TPropSet<System.Extended>.SetProc
 0001:0002C818       System.TypInfo.{System.TypInfo}TPropSet<System.IInterface>.GetProc
 0001:0002C8A0       System.TypInfo.{System.TypInfo}TPropSet<System.IInterface>.SetProc
 0001:0002C2AC       System.TypInfo.{System.TypInfo}TPropSet<System.Single>.GetProc
 0001:0002C330       System.TypInfo.{System.TypInfo}TPropSet<System.Single>.SetProc
 0001:0002C1A0       System.TypInfo.{System.TypInfo}TPropSet<System.string>.GetProc
 0001:0002C228       System.TypInfo.{System.TypInfo}TPropSet<System.string>.SetProc
 0001:0002C094       System.TypInfo.{System.TypInfo}TPropSet<System.WideString>.GetProc
 0001:0002C11C       System.TypInfo.{System.TypInfo}TPropSet<System.WideString>.SetProc
 0004:00004F64       System.Variants..81
 0001:000227F4       System.Variants..EVariantArrayCreateError
 0001:00022734       System.Variants..EVariantArrayLockedError
 0001:00022678       System.Variants..EVariantBadIndexError
 0001:000225B8       System.Variants..EVariantBadVarTypeError
 0001:00022AEC       System.Variants..EVariantDispatchError
 0001:000224F8       System.Variants..EVariantInvalidArgError
 0001:00022BA8       System.Variants..EVariantInvalidNullOpError
 0001:000222C0       System.Variants..EVariantInvalidOpError
 0001:000228B4       System.Variants..EVariantNotImplError
 0001:0002296C       System.Variants..EVariantOutOfMemoryError
 0001:0002243C       System.Variants..EVariantOverflowError
 0001:00022380       System.Variants..EVariantTypeCastError
 0001:00022A2C       System.Variants..EVariantUnexpectedError
 0001:00021DA8       System.Variants..TCustomVariantType
 0001:00023210       System.Variants.@DispInvokeError
 0001:0002930C       System.Variants.@VarAddRef
 0001:00023A58       System.Variants.@VarCast
 0001:000233E4       System.Variants.@VarClear
 0001:000233F8       System.Variants.@VarClr
 0001:0002A024       System.Variants.@VarCmpEQ
 0001:00023748       System.Variants.@VarCopy
 0001:000287B4       System.Variants.@VarFromBool
 0001:00028614       System.Variants.@VarFromByte
 0001:0002881C       System.Variants.@VarFromCurr
 0001:0002875C       System.Variants.@VarFromCurrency
 0001:00028788       System.Variants.@VarFromDate
 0001:000288F8       System.Variants.@VarFromDisp
 0001:00028730       System.Variants.@VarFromDouble
 0001:000285B8       System.Variants.@VarFromInt
 0001:000286E0       System.Variants.@VarFromInt64
 0001:000285F4       System.Variants.@VarFromInteger
 0001:000288CC       System.Variants.@VarFromIntf
 0001:00028654       System.Variants.@VarFromLongWord
 0001:0002883C       System.Variants.@VarFromLStr
 0001:000287DC       System.Variants.@VarFromReal
 0001:000286A0       System.Variants.@VarFromShortInt
 0001:0002870C       System.Variants.@VarFromSingle
 0001:000286C0       System.Variants.@VarFromSmallInt
 0001:000287FC       System.Variants.@VarFromTDateTime
 0001:00028674       System.Variants.@VarFromUInt64
 0001:000288A0       System.Variants.@VarFromUStr
 0001:00028634       System.Variants.@VarFromWord
 0001:00028868       System.Variants.@VarFromWStr
 0001:00023264       System.Variants.@VarNull
 0001:000254B0       System.Variants.@VarToBool
 0001:00025114       System.Variants.@VarToBoolean
 0001:0002439C       System.Variants.@VarToByte
 0001:000264AC       System.Variants.@VarToCurrency
 0001:00025EA8       System.Variants.@VarToDate
 0001:0002850C       System.Variants.@VarToDisp
 0001:00025684       System.Variants.@VarToDouble
 0001:00024968       System.Variants.@VarToInt64
 0001:00023E44       System.Variants.@VarToInteger
 0001:00028440       System.Variants.@VarToIntf
 0001:00024618       System.Variants.@VarToLongWord
 0001:00026BE4       System.Variants.@VarToLStr
 0001:00025A74       System.Variants.@VarToReal
 0001:000242E8       System.Variants.@VarToShortInt
 0001:00025A90       System.Variants.@VarToSingle
 0001:00024444       System.Variants.@VarToSmallInt
 0001:00024DF0       System.Variants.@VarToUInt64
 0001:00027D14       System.Variants.@VarToUStr
 0001:0002453C       System.Variants.@VarToWord
 0001:00027544       System.Variants.@VarToWStr
 0001:000283C8       System.Variants.AnyToIntf
 0003:00002796       System.Variants.BaseTypeMap
 0003:00002795       System.Variants.BooleanToStringRule
 0001:00026978       System.Variants.BoolToWStrViaOS
 0003:000027C2       System.Variants.CBooleanToRelationship
 0004:00004F5C       System.Variants.ChangeAnyProc
 0001:00028924       System.Variants.CheckType
 0003:000027AC       System.Variants.CInvalidCustomVariantType
 0004:00004F58       System.Variants.ClearAnyProc
 0001:000298DC       System.Variants.ClearVariantTypeList
 0003:000027CE       System.Variants.CmpTypeMap
 0003:000027B0       System.Variants.CRangeToType
 0003:000028BC       System.Variants.CRelationshipToBoolean
 0003:00002860       System.Variants.CText
 0001:00028C0C       System.Variants.CurrCompare
 0001:00026908       System.Variants.CurrToWStrViaOS
 0001:00028BE0       System.Variants.DateCompare
 0001:00026940       System.Variants.DateToWStrViaOS
 0001:00023278       System.Variants.ElementCount
 0001:00028A28       System.Variants.EmptyCompare
 0001:0002A034       System.Variants.Finalization
 0001:00029F08       System.Variants.FindCustomVariantType
 0001:00029E48       System.Variants.FindCustomVariantType
 0001:0002973C       System.Variants.FindVarData
 0001:00029838       System.Variants.GetVarDataArrayInfo
 0001:0002318C       System.Variants.HandleConversionException
 0001:00023400       System.Variants.InBounds
 0001:00023430       System.Variants.Increment
 0001:00028B44       System.Variants.Int64Compare
 0001:00028B30       System.Variants.IntCompare
 0003:000028B8       System.Variants.LNextVarType
 0004:00004F68       System.Variants.LVarTypes
 0004:00004F6C       System.Variants.LVarTypeSync
 0001:0002A01C       System.Variants.Null
 0003:00002790       System.Variants.NullAsStringValue
 0001:00028A3C       System.Variants.NullCompare
 0003:0000278C       System.Variants.NullEqualityRule
 0003:0000278D       System.Variants.NullMagnitudeRule
 0003:0000278E       System.Variants.NullStrictConvert
 0003:00002794       System.Variants.PackVarCreation
 0001:00028BB4       System.Variants.RealCompare
 0004:00004F60       System.Variants.RefAnyProc
 0001:00028C3C       System.Variants.StringCompare
 0002:00000394       System.Variants.System.Variants
 0001:0002994C       System.Variants.TCustomVariantType.BinaryOp
 0001:00029958       System.Variants.TCustomVariantType.Cast
 0001:00029990       System.Variants.TCustomVariantType.CastTo
 0001:00029A1C       System.Variants.TCustomVariantType.CastToOle
 0001:000222B0       System.Variants.TCustomVariantType.Clear
 0001:000299D8       System.Variants.TCustomVariantType.Compare
 0001:000299E4       System.Variants.TCustomVariantType.CompareOp
 0001:000222B8       System.Variants.TCustomVariantType.Copy
 0001:00029A58       System.Variants.TCustomVariantType.Create
 0001:00029A9C       System.Variants.TCustomVariantType.Create
 0001:00029D18       System.Variants.TCustomVariantType.Destroy
 0001:00029DFC       System.Variants.TCustomVariantType.DispInvoke
 0001:00029DA8       System.Variants.TCustomVariantType.IsClear
 0001:00029DAC       System.Variants.TCustomVariantType.LeftPromotion
 0001:00029DC0       System.Variants.TCustomVariantType.OlePromotion
 0001:00029E20       System.Variants.TCustomVariantType.QueryInterface
 0001:00029DC8       System.Variants.TCustomVariantType.RaiseCastError
 0001:00029DD8       System.Variants.TCustomVariantType.RaiseDispError
 0001:00029DD0       System.Variants.TCustomVariantType.RaiseInvalidOp
 0001:00029DE0       System.Variants.TCustomVariantType.RightPromotion
 0001:00029DF4       System.Variants.TCustomVariantType.UnaryOp
 0001:00029E08       System.Variants.TCustomVariantType._AddRef
 0001:00029E14       System.Variants.TCustomVariantType._Release
 0001:00022EF8       System.Variants.TranslateResult
 0001:00028B80       System.Variants.UInt64Compare
 0001:000232B4       System.Variants.VarArrayClear
 0001:00023488       System.Variants.VarArrayCopyForEach
 0001:00022EA4       System.Variants.VarArrayCreateError
 0001:00023784       System.Variants.VarCastAsAny
 0001:000238D4       System.Variants.VarCastAsDispatch
 0001:00023920       System.Variants.VarCastAsInterface
 0001:000237F0       System.Variants.VarCastAsOleStr
 0001:0002383C       System.Variants.VarCastAsString
 0001:00023888       System.Variants.VarCastAsUString
 0001:00022CC4       System.Variants.VarCastError
 0001:00022C70       System.Variants.VarCastError
 0001:000239EC       System.Variants.VarCastRare
 0001:0002396C       System.Variants.VarCastViaOS
 0001:00023350       System.Variants.VarClearDeep
 0001:00029280       System.Variants.VarCompare
 0001:00028950       System.Variants.VarCompareAny
 0001:00028E60       System.Variants.VarCompareRare
 0001:00028CA8       System.Variants.VarCompareSimple
 0001:00023654       System.Variants.VarCopyCopyProc
 0001:0002365C       System.Variants.VarCopyDeep
 0004:00004F54       System.Variants.VarDispProc
 0001:00022DB4       System.Variants.VarInvalidNullOp
 0001:00022D60       System.Variants.VarInvalidOp
 0001:00029884       System.Variants.VarIsArray
 0001:0002987C       System.Variants.VarIsArray
 0001:0002974C       System.Variants.VarIsClear
 0001:00022E08       System.Variants.VarOverflowError
 0001:00023158       System.Variants.VarResultCheck
 0001:0002314C       System.Variants.VarResultCheck
 0001:000297C0       System.Variants.VarSameValue
 0001:00025064       System.Variants.VarToBoolAny
 0001:00024F60       System.Variants.VarToBoolAsString
 0001:000250C8       System.Variants.VarToBoolCustom
 0001:00025024       System.Variants.VarToBoolViaOS
 0001:000263FC       System.Variants.VarToCurrencyAny
 0001:00026350       System.Variants.VarToCurrencyAsDouble
 0001:0002628C       System.Variants.VarToCurrencyAsString
 0001:00026460       System.Variants.VarToCurrencyCustom
 0001:000263B0       System.Variants.VarToCurrencyViaOS
 0001:00025DF8       System.Variants.VarToDateAny
 0001:00025D4C       System.Variants.VarToDateAsDouble
 0001:00025C54       System.Variants.VarToDateAsString
 0001:00025E5C       System.Variants.VarToDateCustom
 0001:00025DAC       System.Variants.VarToDateViaOS
 0001:000255D4       System.Variants.VarToDoubleAny
 0001:000254BC       System.Variants.VarToDoubleAsString
 0001:00025638       System.Variants.VarToDoubleCustom
 0001:00025588       System.Variants.VarToDoubleViaOS
 0001:000248B0       System.Variants.VarToInt64Any
 0001:000247B0       System.Variants.VarToInt64AsString
 0001:0002491C       System.Variants.VarToInt64Custom
 0001:00024704       System.Variants.VarToInt64ViaOS
 0001:00023D9C       System.Variants.VarToIntAny
 0001:00023CAC       System.Variants.VarToIntAsString
 0001:00023E00       System.Variants.VarToIntCustom
 0001:00023D60       System.Variants.VarToIntViaOS
 0001:00026AF8       System.Variants.VarToLStrAny
 0001:00026B5C       System.Variants.VarToLStrCustom
 0001:00026A40       System.Variants.VarToLStrViaOS
 0001:00027BE8       System.Variants.VarToUStrAny
 0001:00027C4C       System.Variants.VarToUStrCustom
 0001:00027404       System.Variants.VarToWStrAny
 0001:00027468       System.Variants.VarToWStrCustom
 0001:00027338       System.Variants.VarToWStrViaOS
 0001:00029588       System.Variants.VarTypeAsText
 0004:00004F50       System.VarUtils..5
 0001:0002178C       System.VarUtils.BackupVarBoolFromStr
 0001:0002191C       System.VarUtils.BackupVarBStrFromBool
 0001:0002180C       System.VarUtils.BackupVarBStrFromCy
 0001:00021894       System.VarUtils.BackupVarBStrFromDate
 0001:0002171C       System.VarUtils.BackupVarCyFromStr
 0001:000216AC       System.VarUtils.BackupVarDateFromStr
 0001:00021560       System.VarUtils.BackupVarI4FromStr
 0001:000214F4       System.VarUtils.BackupVariantChangeTypeEx
 0001:000215CC       System.VarUtils.BackupVarR4FromStr
 0001:0002163C       System.VarUtils.BackupVarR8FromStr
 0001:00021548       System.VarUtils.BiUnimplemented
 0001:00021554       System.VarUtils.CmpUnimplemented
 0003:00002784       System.VarUtils.CResult
 0001:00021CF4       System.VarUtils.Finalization
 0001:000219B0       System.VarUtils.FindProc
 0001:000219DC       System.VarUtils.InitializeVarUtils
 0001:00021990       System.VarUtils.SafeArrayCreate
 0001:00021998       System.VarUtils.SafeArrayGetLBound
 0001:000219A0       System.VarUtils.SafeArrayGetUBound
 0001:000219A8       System.VarUtils.SafeArrayPtrOfIndex
 0002:00000384       System.VarUtils.System.VarUtils
 0001:0002153C       System.VarUtils.UniUnimplemented
 0004:00004F04       System.VarUtils.VarAdd
 0004:00004F1C       System.VarUtils.VarAnd
 0004:00004F40       System.VarUtils.VarBoolFromStr
 0004:00004F4C       System.VarUtils.VarBstrFromBool
 0004:00004F44       System.VarUtils.VarBstrFromCy
 0004:00004F48       System.VarUtils.VarBstrFromDate
 0004:00004F28       System.VarUtils.VarCmp
 0004:00004F3C       System.VarUtils.VarCyFromStr
 0004:00004F38       System.VarUtils.VarDateFromStr
 0004:00004F10       System.VarUtils.VarDiv
 0004:00004F2C       System.VarUtils.VarI4FromStr
 0001:000214EC       System.VarUtils.VariantChangeType
 0004:00004EF8       System.VarUtils.VariantChangeTypeEx
 0001:000214DC       System.VarUtils.VariantClear
 0001:000214E4       System.VarUtils.VariantCopy
 0001:000214D4       System.VarUtils.VariantInit
 0004:00004F14       System.VarUtils.VarIDiv
 0004:00004F18       System.VarUtils.VarMod
 0004:00004F0C       System.VarUtils.VarMul
 0004:00004EFC       System.VarUtils.VarNeg
 0004:00004F00       System.VarUtils.VarNot
 0004:00004F20       System.VarUtils.VarOr
 0004:00004F30       System.VarUtils.VarR4FromStr
 0004:00004F34       System.VarUtils.VarR8FromStr
 0004:00004F08       System.VarUtils.VarSub
 0004:00004F24       System.VarUtils.VarXor
 0004:0000529C       System.Win.Registry..5
 0001:0005BAF4       System.Win.Registry..ERegistryException
 0001:0005BD10       System.Win.Registry..TRegistry
 0001:0005CD78       System.Win.Registry.BinaryToHexString
 0001:0005E6DC       System.Win.Registry.CopyKeys
 0001:0005E5A4       System.Win.Registry.CopyValues
 0001:0005CD50       System.Win.Registry.DataTypeToRegData
 0001:0005EA4C       System.Win.Registry.Finalization
 0001:0005CD08       System.Win.Registry.IsRelative
 0003:000029AC       System.Win.Registry.KeyNames
 0001:0005E484       System.Win.Registry.MoveValue
 0001:0005CCDC       System.Win.Registry.ReadError
 0001:0005CD20       System.Win.Registry.RegDataToDataType
 0002:00000A98       System.Win.Registry.System.Win.Registry
 0004:00005298       System.Win.Registry.TRegistry.$ClassInitFlag
 0001:0005CF70       System.Win.Registry.TRegistry.ChangeKey
 0001:0005CF08       System.Win.Registry.TRegistry.CheckResult
 0001:0005CF14       System.Win.Registry.TRegistry.CloseKey
 0001:0005CEA0       System.Win.Registry.TRegistry.Create
 0001:0005CE5C       System.Win.Registry.TRegistry.Create
 0002:00000A00       System.Win.Registry.TRegistry.Create@
 0001:0005CFAC       System.Win.Registry.TRegistry.CreateKey
 0001:0005D3B8       System.Win.Registry.TRegistry.DeleteKey
 0001:0005D584       System.Win.Registry.TRegistry.DeleteValue
 0001:0005CEDC       System.Win.Registry.TRegistry.Destroy
 0001:0005BAEC       System.Win.Registry.TRegistry.Destroy@
 0004:00005294       System.Win.Registry.TRegistry.FUseRegDeleteKeyEx
 0001:0005CF94       System.Win.Registry.TRegistry.GetBaseKey
 0001:0005DF44       System.Win.Registry.TRegistry.GetData
 0001:0005DB14       System.Win.Registry.TRegistry.GetDataAsString
 0001:0005D94C       System.Win.Registry.TRegistry.GetDataInfo
 0001:0005D9A0       System.Win.Registry.TRegistry.GetDataSize
 0001:0005D9C8       System.Win.Registry.TRegistry.GetDataType
 0001:0005DFF4       System.Win.Registry.TRegistry.GetKey
 0001:0005D5A8       System.Win.Registry.TRegistry.GetKeyInfo
 0001:0005D614       System.Win.Registry.TRegistry.GetKeyNames
 0001:0005D6DC       System.Win.Registry.TRegistry.GetLastErrorMsg
 0001:0005D84C       System.Win.Registry.TRegistry.GetRootKeyName
 0001:0005D884       System.Win.Registry.TRegistry.GetValueNames
 0001:0005DFC0       System.Win.Registry.TRegistry.HasSubKeys
 0001:0005E370       System.Win.Registry.TRegistry.KeyExists
 0001:0005E0C8       System.Win.Registry.TRegistry.LoadKey
 0001:0005E938       System.Win.Registry.TRegistry.MoveKey
 0001:0005D09C       System.Win.Registry.TRegistry.OpenKey
 0001:0005D1D0       System.Win.Registry.TRegistry.OpenKeyReadOnly
 0001:0005DED0       System.Win.Registry.TRegistry.PutData
 0001:0005DE6C       System.Win.Registry.TRegistry.ReadBinaryData
 0001:0005DD18       System.Win.Registry.TRegistry.ReadBool
 0001:0005DD8C       System.Win.Registry.TRegistry.ReadCurrency
 0001:0005DE1C       System.Win.Registry.TRegistry.ReadDate
 0001:0005DDD4       System.Win.Registry.TRegistry.ReadDateTime
 0001:0005DD44       System.Win.Registry.TRegistry.ReadFloat
 0001:0005DCDC       System.Win.Registry.TRegistry.ReadInteger
 0001:0005DA58       System.Win.Registry.TRegistry.ReadString
 0001:0005DE44       System.Win.Registry.TRegistry.ReadTime
 0001:0005E08C       System.Win.Registry.TRegistry.RegistryConnect
 0001:0005E3E8       System.Win.Registry.TRegistry.RenameValue
 0001:0005E254       System.Win.Registry.TRegistry.ReplaceKey
 0001:0005E1DC       System.Win.Registry.TRegistry.RestoreKey
 0001:0005E2F8       System.Win.Registry.TRegistry.SaveKey
 0001:0005CFA8       System.Win.Registry.TRegistry.SetCurrentKey
 0001:0005CF44       System.Win.Registry.TRegistry.SetRootKey
 0001:0005E158       System.Win.Registry.TRegistry.UnLoadKey
 0001:0005DFE4       System.Win.Registry.TRegistry.ValueExists
 0001:0005DE58       System.Win.Registry.TRegistry.WriteBinaryData
 0001:0005DD0C       System.Win.Registry.TRegistry.WriteBool
 0001:0005DD78       System.Win.Registry.TRegistry.WriteCurrency
 0001:0005DE08       System.Win.Registry.TRegistry.WriteDate
 0001:0005DDC0       System.Win.Registry.TRegistry.WriteDateTime
 0001:0005DA24       System.Win.Registry.TRegistry.WriteExpandString
 0001:0005DD30       System.Win.Registry.TRegistry.WriteFloat
 0001:0005DCC8       System.Win.Registry.TRegistry.WriteInteger
 0001:0005D9F0       System.Win.Registry.TRegistry.WriteString
 0001:0005DE30       System.Win.Registry.TRegistry.WriteTime
 0003:000029C8       System.Win.Registry.Values
 0001:000098C0       Winapi.Windows.$thunk_GetNativeSystemInfo
 0001:000098E0       Winapi.Windows.$thunk_LocaleNameToLCID
 0001:0000968C       Winapi.Windows.$thunk_RegDeleteKeyExW
 0004:00002C60       Winapi.Windows..2
 0001:0000967C       Winapi.Windows.advapi32.dll
 0001:000099B8       Winapi.Windows.BeginDeferWindowPos
 0001:000099C0       Winapi.Windows.BeginPaint
 0001:000099C8       Winapi.Windows.CallWindowProc
 0001:000099D0       Winapi.Windows.CharUpperW
 0001:0000970C       Winapi.Windows.CloseHandle
 0001:00009714       Winapi.Windows.CompareString
 0001:0000971C       Winapi.Windows.CompareStringW
 0001:00009734       Winapi.Windows.CreateEvent
 0001:0000973C       Winapi.Windows.CreateFile
 0001:00009A80       Winapi.Windows.CreateWindow
 0001:00009AD8       Winapi.Windows.CreateWindowW
 0001:000099E0       Winapi.Windows.DeferWindowPos
 0001:000099D8       Winapi.Windows.DefWindowProc
 0001:00009744       Winapi.Windows.DeleteCriticalSection
 0001:000099E8       Winapi.Windows.EnableWindow
 0001:000099F0       Winapi.Windows.EndDeferWindowPos
 0001:000099F8       Winapi.Windows.EndPaint
 0001:0000974C       Winapi.Windows.EnterCriticalSection
 0001:00009754       Winapi.Windows.EnumCalendarInfo
 0001:0000975C       Winapi.Windows.EnumSystemLocales
 0001:00009764       Winapi.Windows.FileTimeToDosDateTime
 0001:0000976C       Winapi.Windows.FileTimeToLocalFileTime
 0001:00009774       Winapi.Windows.FileTimeToSystemTime
 0001:00009B7C       Winapi.Windows.Finalization
 0001:0000977C       Winapi.Windows.FindClose
 0001:00009784       Winapi.Windows.FindFirstFile
 0001:0000978C       Winapi.Windows.FindNextFile
 0001:00009794       Winapi.Windows.FindResource
 0001:0000979C       Winapi.Windows.FormatMessage
 0001:000097A4       Winapi.Windows.FreeLibrary
 0001:000097BC       Winapi.Windows.FreeResource
 0001:000097C4       Winapi.Windows.GetACP
 0001:00009A00       Winapi.Windows.GetClientRect
 0001:000097CC       Winapi.Windows.GetCPInfo
 0001:000097D4       Winapi.Windows.GetCPInfoEx
 0001:000097DC       Winapi.Windows.GetCurrentProcess
 0001:000097E4       Winapi.Windows.GetCurrentThreadId
 0001:000097EC       Winapi.Windows.GetDateFormat
 0001:000097F4       Winapi.Windows.GetDiskFreeSpace
 0001:000097FC       Winapi.Windows.GetFileAttributes
 0001:00009804       Winapi.Windows.GetFullPathName
 0001:0000980C       Winapi.Windows.GetLastError
 0001:0000981C       Winapi.Windows.GetLocaleInfo
 0001:00009824       Winapi.Windows.GetLocaleInfoW
 0001:00009814       Winapi.Windows.GetLocalTime
 0001:0000982C       Winapi.Windows.GetModuleFileName
 0001:00009834       Winapi.Windows.GetModuleHandle
 0001:000098D0       Winapi.Windows.GetNativeSystemInfo
 0001:0000983C       Winapi.Windows.GetProcAddress
 0001:00009844       Winapi.Windows.GetProcAddress
 0001:000098B8       Winapi.Windows.GetStdHandle
 0001:00009A08       Winapi.Windows.GetSystemMetrics
 0001:000098D8       Winapi.Windows.GetThreadLocale
 0001:00009900       Winapi.Windows.GetVersionEx
 0001:000098F8       Winapi.Windows.GetVersionEx
 0001:00009B30       Winapi.Windows.GetWindowLongPtr
 0004:00002C64       Winapi.Windows.HtmlHelpModule
 0001:00009908       Winapi.Windows.InitializeCriticalSection
 0001:00009B40       Winapi.Windows.InitVersionInfo
 0001:000097AC       Winapi.Windows.InterlockedCompareExchange
 0001:000097B4       Winapi.Windows.InterlockedExchangeAdd
 0001:00009910       Winapi.Windows.IsValidLocale
 0001:00009724       Winapi.Windows.kernel32.dll
 0001:00009918       Winapi.Windows.LeaveCriticalSection
 0001:00009A10       Winapi.Windows.LoadCursor
 0001:00009A18       Winapi.Windows.LoadIcon
 0001:00009920       Winapi.Windows.LoadLibrary
 0001:00009928       Winapi.Windows.LoadResource
 0001:00009A20       Winapi.Windows.LoadString
 0001:000098F0       Winapi.Windows.LocaleNameToLCID
 0001:00009930       Winapi.Windows.LocalFree
 0001:00009938       Winapi.Windows.LockResource
 0001:00009A28       Winapi.Windows.MessageBox
 0001:00009A30       Winapi.Windows.PostMessage
 0001:00009A38       Winapi.Windows.PostQuitMessage
 0001:00009940       Winapi.Windows.ReadFile
 0001:0000965C       Winapi.Windows.RegCloseKey
 0001:00009664       Winapi.Windows.RegConnectRegistry
 0001:0000966C       Winapi.Windows.RegCreateKeyEx
 0001:00009674       Winapi.Windows.RegDeleteKey
 0001:0000969C       Winapi.Windows.RegDeleteKeyEx
 0001:000096A4       Winapi.Windows.RegDeleteValue
 0001:000096AC       Winapi.Windows.RegEnumKeyEx
 0001:000096B4       Winapi.Windows.RegEnumValue
 0001:000096BC       Winapi.Windows.RegFlushKey
 0001:00009A40       Winapi.Windows.RegisterClass
 0001:000096C4       Winapi.Windows.RegLoadKey
 0001:000096CC       Winapi.Windows.RegOpenKeyEx
 0001:000096D4       Winapi.Windows.RegQueryInfoKey
 0001:000096DC       Winapi.Windows.RegQueryValueEx
 0001:000096E4       Winapi.Windows.RegReplaceKey
 0001:000096EC       Winapi.Windows.RegRestoreKey
 0001:000096F4       Winapi.Windows.RegSaveKey
 0001:000096FC       Winapi.Windows.RegSetValueEx
 0001:00009704       Winapi.Windows.RegUnLoadKey
 0001:00009948       Winapi.Windows.ResetEvent
 0001:00009A48       Winapi.Windows.SendMessageW
 0001:00009950       Winapi.Windows.SetEndOfFile
 0001:00009958       Winapi.Windows.SetEvent
 0001:00009960       Winapi.Windows.SetFilePointer
 0001:00009968       Winapi.Windows.SetLastError
 0001:00009A50       Winapi.Windows.SetTimer
 0001:00009B38       Winapi.Windows.SetWindowLongPtr
 0001:00009A58       Winapi.Windows.SetWindowTextW
 0001:00009A60       Winapi.Windows.ShowWindow
 0001:00009970       Winapi.Windows.SizeofResource
 0001:00009978       Winapi.Windows.SwitchToThread
 0001:00009980       Winapi.Windows.TryEnterCriticalSection
 0001:00009A68       Winapi.Windows.UpdateWindow
 0001:00009988       Winapi.Windows.VirtualFree
 0001:00009990       Winapi.Windows.VirtualQuery
 0001:00009998       Winapi.Windows.VirtualQueryEx
 0001:000099A0       Winapi.Windows.WaitForSingleObject
 0001:000099A8       Winapi.Windows.WideCharToMultiByte
 0003:00000C80       Winapi.Windows.Win32MajorVersion
 0003:00000C84       Winapi.Windows.Win32MinorVersion
 0003:00000C88       Winapi.Windows.Win32Platform
 0002:000000BC       Winapi.Windows.Winapi.Windows
 0001:000099B0       Winapi.Windows.WriteFile
 0001:00009A70       Winapi.Windows._CreateWindowEx
 0001:00009A78       Winapi.Windows._CreateWindowExW


  Address             Publics by Value

 0001:000004D8       System..TObject
 0001:00000DC8       System..TInterfacedObject
 0001:00001688       System.InterlockedAdd
 0001:00001694       System.InterlockedCompareExchange
 0001:0000169C       System.InterlockedCompareExchangePointer
 0001:000016A4       System.InterlockedDecrement
 0001:000016B0       System.InterlockedExchange
 0001:000016BC       System.InterlockedIncrement
 0001:000016C8       System.CloseHandle
 0001:000016D0       System.GetStdHandle
 0001:000016D8       System.WriteFile
 0001:000016E0       System.FindClose
 0001:000016E8       System.FindFirstFile
 0001:000016F0       System.InitializeCriticalSection
 0001:000016F8       System.EnterCriticalSection
 0001:00001700       System.LeaveCriticalSection
 0001:00001708       System.DeleteCriticalSection
 0001:00001710       System.GetCurrentThreadId
 0001:00001718       System.ExitProcess
 0001:00001720       System.RaiseException
 0001:00001728       System.RtlUnwind
 0001:00001730       System.UnhandledExceptionFilter
 0001:00001738       System.GetLastError
 0001:00001740       System.FreeLibrary
 0001:00001748       System.LoadString
 0001:00001750       System.GetCommandLine
 0001:00001758       System.GetModuleFileName
 0001:00001760       System.GetModuleHandle
 0001:00001768       System.GetProcAddress
 0001:00001770       System.GetStartupInfo
 0001:00001778       System.LoadLibraryEx
 0001:00001780       System.GetACP
 0001:00001788       System.MultiByteToWideChar
 0001:00001790       System.WideCharToMultiByte
 0001:00001798       System.GetLocaleInfo
 0001:000017A0       System.GetUserDefaultUILanguage
 0001:000017A8       System.GetSystemDefaultUILanguage
 0001:000017B0       System.SetThreadLocale
 0001:000017B8       System.IsValidLocale
 0001:000017C0       System.CharNext
 0001:000017C8       System.CompareString
 0001:000017D0       System.MessageBoxA
 0001:000017D8       System.RegCloseKey
 0001:000017E0       System.RegOpenKeyEx
 0001:000017E8       System.RegQueryValueEx
 0001:000017F0       System.GetVersion
 0001:000017F8       System.GetSystemInfo
 0001:00001800       System.GetTickCount
 0001:00001808       System.QueryPerformanceCounter
 0001:00001810       System.VirtualQuery
 0001:00001818       System.SysAllocStringLen
 0001:00001820       System.SysReAllocStringLen
 0001:00001828       System.SysFreeString
 0001:00001830       System.lstrcpyn
 0001:00001838       System.@strlen
 0001:00001840       System.kernel32.dll
 0001:00001850       System.$thunk_GetLogicalProcessorInformation
 0001:00001860       System.GetLogicalProcessorInformation
 0001:00001868       System.GetCmdShow
 0001:00001894       System.VirtualAlloc
 0001:0000189C       System.VirtualFree
 0001:000018A4       System.Sleep
 0001:000019D4       System.LockCmpxchg
 0001:000019DC       System.Move12
 0001:000019F0       System.Move20
 0001:00001A10       System.Move28
 0001:00001A3C       System.Move36
 0001:00001A5C       System.Move44
 0001:00001A80       System.Move52
 0001:00001AAC       System.Move60
 0001:00001ADC       System.Move68
 0001:00001B14       System.MoveX16LP
 0001:00001B44       System.MoveX8LP
 0001:00001B60       System.RemoveMediumFreeBlock
 0001:00001BA0       System.InsertMediumBlockIntoBin
 0001:00001C00       System.BinMediumSequentialFeedRemainder
 0001:00001C6C       System.AllocNewSequentialFeedMediumPool
 0001:00001CE4       System.LockLargeBlocks
 0001:00001D2C       System.AllocateLargeBlock
 0001:00001D90       System.FreeLargeBlock
 0001:00001E34       System.ReallocateLargeBlock
 0001:00001F84       System.SysGetMem
 0001:00002308       System.SysFreeMem
 0001:00002500       System.SysReallocMem
 0001:00002818       System.SysAllocMem
 0001:0000284C       System.NextMediumBlock
 0001:00002870       System.GetFirstMediumBlockInPool
 0001:000028B0       System.GetFirstAndLastSmallBlockInPool
 0001:000028EC       System.NativeUIntToStrBuf
 0001:0000293C       System.AppendStringToBuffer
 0001:00002954       System.AppendClassNameToBuffer
 0001:00002988       System.IsValidVMTAddress
 0001:00002A00       System.InternalIsValidClass
 0001:00002A80       System.GetObjectClass
 0001:00002AA8       System.LockExpectedMemoryLeaksList
 0001:00002B1C       System.SysRegisterExpectedMemoryLeak
 0001:00002B5C       System.SysUnregisterExpectedMemoryLeak
 0001:00002BB4       System.CheckSmallBlockPoolForLeaks
 0001:00002D70       System.ScanForMemoryLeaks
 0001:00003170       System.BuildBlockTypeLookupTable
 0001:000031B4       System.InitializeMemoryManager
 0001:000032DC       System.FreeAllMemory
 0001:0000338C       System.FinalizeMemoryManager
 0001:000033E0       System.AllocMem
 0001:000033F8       System.@GetMem
 0001:00003414       System.@FreeMem
 0001:0000342C       System.@ReallocMem
 0001:0000347C       System.ExceptObject
 0001:0000349C       System.AcquireExceptionObject
 0001:000034D0       System.RaiseList
 0001:000034DC       System.RunErrorAt
 0001:000034E8       System.ErrorAt
 0001:00003534       System.Error
 0001:0000354C       System.@_IOTest
 0001:0000356C       System.SetInOutRes
 0001:0000357C       System.IOResult
 0001:0000359C       System.Move
 0001:0000369C       System.Randomize
 0001:000036C4       System.Set8087CW
 0001:000036D4       System.Get8087CW
 0001:000036DC       System.GetMXCSR
 0001:000036F0       System.@ROUND
 0001:000036FC       System.@TRUNC
 0001:00003720       System.@AbstractError
 0001:00003744       System.InternalFlush
 0001:0000378C       System.Flush
 0001:00003798       System.@Close
 0001:000037F0       System.@FillChar
 0001:0000388C       System.@ValLong
 0001:00003990       System.@SetElem
 0001:000039B4       System.@SetUnion
 0001:000039C0       System.FPower10
 0001:000039C8       System.@Pow10
 0001:00003A7C       System.GetBriefSSEType
 0001:00003AB0       System.@InitializeControlWord
 0001:00003ACC       System.@FpuInit
 0001:00003AD8       System.@BoundErr
 0001:00003AE0       System.@IntOver
 0001:00003AE8       System.TObject.ClassType
 0001:00003AF0       System.TObject.ClassName
 0001:00003B08       System.TObject.QualifiedClassName
 0001:00003B98       System.TObject.ClassNameIs
 0001:00003C14       System.TObject.ClassParent
 0001:00003C20       System.TObject.NewInstance
 0001:00003C3C       System.TObject.FreeInstance
 0001:00003C50       System.TObject.InstanceSize
 0001:00003C58       System.TObject.Create
 0001:00003C78       System.TObject.Destroy
 0001:00003C88       System.TObject.Free
 0001:00003C94       System.TObject.InitInstance
 0001:00003CEC       System.TObject.CleanupInstance
 0001:00003D14       System.InvokeImplGetter
 0001:00003D44       System.TObject.Equals
 0001:00003D4C       System.TObject.GetHashCode
 0001:00003D50       System.TObject.GetInterface
 0001:00003DFC       System.TObject.GetInterfaceEntry
 0001:00003E40       System.TObject.GetInterfaceTable
 0001:00003E48       System.TObject.UnitName
 0001:00003EC4       System.TObject.UnitScope
 0001:00003F44       System.@IsClass
 0001:00003F68       System.@AsClass
 0001:00003F98       System.@IntfAsClass
 0001:00003FB4       System.GetDynaMethod
 0001:00003FE4       System.@CallDynaInst
 0001:00004004       System.TObject.InheritsFrom
 0001:00004018       System.TObject.ClassInfo
 0001:00004020       System.TObject.SafeCallException
 0001:00004028       System.TObject.ToString
 0001:0000403C       System.TObject.DefaultHandler
 0001:00004040       System.TObject.AfterConstruction
 0001:00004044       System.TObject.BeforeDestruction
 0001:00004048       System.TObject.Dispatch
 0001:00004074       System.UTF8Compare
 0001:000040EC       System.TObject.MethodAddress
 0001:0000415C       System.UTF8ShortStringToString
 0001:00004170       System.TObject.MethodAddress
 0001:00004198       System.TObject.MethodName
 0001:000041E4       System.TObject.FieldAddress
 0001:00004258       System.TObject.FieldAddress
 0001:00004280       System.@ClassCreate
 0001:000042D0       System.@ClassDestroy
 0001:000042D8       System.@AfterConstruction
 0001:00004328       System.@BeforeDestruction
 0001:00004338       System.TMonitor.GetCacheLineSize
 0001:00004434       System.TMonitor.CheckMonitorSupport
 0001:00004448       System.TMonitor.CheckOwningThread
 0001:00004460       System.TMonitor.Create
 0001:0000449C       System.TMonitor.Destroy
 0001:000044B4       System.TMonitor.Destroy
 0001:000044E0       System.TMonitor.Enter
 0001:000044FC       System.TMonitor.Enter
 0001:00004694       System.TMonitor.Exit
 0001:000046E0       System.TMonitor.Exit
 0001:000046F8       System.TMonitor.GetEvent
 0001:00004760       System.TMonitor.GetFieldAddress
 0001:00004770       System.TMonitor.GetMonitor
 0001:000047AC       System.TMonitor.TryEnter
 0001:000047F0       System.YieldProcessor
 0001:000047F4       System.NotifyReRaise
 0001:00004810       System.NotifyNonDelphiException
 0001:00004834       System.NotifyExcept
 0001:0000484C       System.NotifyOnExcept
 0001:00004860       System.NotifyAnyExcept
 0001:00004874       System.CheckJmp
 0001:00004894       System.NotifyExceptFinally
 0001:000048BC       System.NotifyTerminate
 0001:000048D8       System.NotifyUnhandled
 0001:000048F8       System.@HandleAnyException
 0001:00004A24       System.@HandleOnException
 0001:00004BAC       System.@HandleFinally
 0001:00004C54       System.@HandleFinallyInternal
 0001:00004C8C       System.@RaiseExcept
 0001:00004CFC       System.@RaiseAgain
 0001:00004D50       System.@DoneExcept
 0001:00004D80       System.@TryFinallyExit
 0001:00004D98       System.MapToRunError
 0001:00004E38       System.@ExceptionHandler
 0001:00004ED8       System.SetExceptionHandler
 0001:00004EF8       System.UnsetExceptionHandler
 0001:00004F20       System.FinalizeUnits
 0001:00004F88       System.InitUnits
 0001:00004FF4       System.@StartExe
 0001:0000503C       System.LoadResStringA
 0001:00005090       System.LoadResStringW
 0001:000050E0       System.LoadResStringU
 0001:000050F4       System.@InitResStringImports
 0001:00005138       System.@InitImports
 0001:0000515C       System.MakeErrorMessage
 0001:000051C4       System.ExitDll
 0001:000051F0       System.WriteErrorMessage
 0001:00005288       System.@Halt0
 0001:000053B4       System.@Halt
 0001:000053C0       System.@RunError
 0001:000053DC       System.@Assert
 0001:00005418       System.@NewUnicodeString
 0001:00005458       System.@NewAnsiString
 0001:000054A4       System.WStrError
 0001:000054AC       System.@NewWideString
 0001:000054C4       System.@UStrClr
 0001:000054E8       System.@LStrClr
 0001:0000550C       System.@WStrClr
 0001:00005524       System.@UStrArrayClr
 0001:00005554       System.@LStrArrayClr
 0001:00005584       System.@WStrArrayClr
 0001:000055A8       System.@UStrAddRef
 0001:000055B8       System.CharFromWChar
 0001:000055E4       System.CharFromWChar
 0001:00005600       System.WCharFromChar
 0001:0000561C       System.@UStrFromPWCharLen
 0001:0000564C       System.@WStrFromPWCharLen
 0001:00005670       System.@LStrFromPCharLen
 0001:000056A8       System.InternalUStrFromPCharLen
 0001:0000573C       System.@UStrFromPCharLen
 0001:0000574C       System.InternalWStrFromPCharLen
 0001:000057E0       System.@WStrFromPCharLen
 0001:000057F0       System.@LStrFromPWCharLen
 0001:00005874       System.@UStrAsg
 0001:000058BC       System.@UStrLAsg
 0001:000058E8       System.@WStrAsg
 0001:00005910       System.@LStrAsg
 0001:00005958       System.@LStrLAsg
 0001:00005984       System.@UStrLen
 0001:00005990       System.@PCharLen
 0001:000059A4       System.@PWCharLen
 0001:000059B8       System.InternalUniqueStringU
 0001:000059FC       System.InternalUniqueStringA
 0001:00005A40       System.@UniqueStringU
 0001:00005A48       System.@UniqueStringA
 0001:00005A50       System.@AStrCmp
 0001:00005AC0       System.@PStrCpy
 0001:00005ACC       System.@Copy
 0001:00005B10       System.@LStrFromPChar
 0001:00005B44       System.@LStrFromPWChar
 0001:00005B84       System.@LStrFromString
 0001:00005B98       System.@LStrFromWStr
 0001:00005BB0       System.@LStrToString
 0001:00005C0C       System.@LStrToPChar
 0001:00005C24       System.@LStrSetLength
 0001:00005C9C       System.@LStrFromUStr
 0001:00005CB4       System.WStrSet
 0001:00005CC4       System.@WStrFromPChar
 0001:00005CF4       System.@WStrFromPWChar
 0001:00005D30       System.@WStrFromLStr
 0001:00005D50       System.@WStrCmp
 0001:00005DD4       System.@WStrEqual
 0001:00005DDC       System.@WStrCopy
 0001:00005E28       System.@WStrSetLength
 0001:00005E7C       System.@WCharToString
 0001:00005ED8       System.@UStrToPWChar
 0001:00005EF0       System.@UStrFromWChar
 0001:00005F00       System.@UStrFromPChar
 0001:00005F30       System.@UStrFromPWChar
 0001:00005F6C       System.@UStrFromWArray
 0001:00005F88       System.@UStrFromLStr
 0001:00005FA8       System.@UStrFromWStr
 0001:00005FBC       System.@WStrFromUStr
 0001:00005FCC       System.@UStrToString
 0001:00006038       System.@UStrFromString
 0001:00006044       System.@UStrSetLength
 0001:000060C4       System.@UStrCat
 0001:0000611C       System.@UStrCat3
 0001:000061A4       System.@UStrCatN
 0001:00006254       System.@UStrEqual
 0001:0000628C       System.@UStrCopy
 0001:000062D4       System.@UStrDelete
 0001:00006338       System.Pos
 0001:00006378       System.Pos
 0001:000063C4       System.SetCodePage
 0001:00006538       System.@InitializeRecord
 0001:0000656C       System.@InitializeArray
 0001:00006604       System.@FinalizeRecord
 0001:0000663C       System.@VarClr
 0001:00006654       System.@FinalizeArray
 0001:00006764       System.@Finalize
 0001:00006770       System.@VarCopy
 0001:00006788       System.@CopyRecord
 0001:000068C8       System.@CopyArray
 0001:000069E0       System.@Dispose
 0001:000069F0       System.CopyArray
 0001:00006A00       System.FinalizeArray
 0001:00006A08       System.@DispCallByIDError
 0001:00006A10       System.@_llmul
 0001:00006A34       System.@_lldiv
 0001:00006AC8       System.@_lludiv
 0001:00006B14       System.@_llmod
 0001:00006B90       System.@ValInt64
 0001:00006E08       System.@DynArrayLength
 0001:00006E10       System.@DynArrayHigh
 0001:00006E18       System.DynArrayClear
 0001:00006E20       System.DynArraySetLength
 0001:00006FBC       System.@DynArraySetLength
 0001:00006FC8       System.@DynArrayClear
 0001:00007004       System.@DynArrayAsg
 0001:0000702C       System.@DynArrayAddRef
 0001:00007038       System.DelayLoadResourceModule
 0001:00007080       System.FindResourceHInstance
 0001:000072E4       System.InitializeLocaleData
 0001:000073D4       System.FinalizeLocaleDate
 0001:000073E0       System.LastHyphenPos
 0001:0000744C       System.ConvertResToUILanguages
 0001:0000753C       System.GetPreferredLangForOldOS
 0001:000076D0       System.CheckDifferentLanguageList
 0001:000076F4       System.ThreadUILanguages
 0001:00007738       System.GetPreferredLangForNewOS
 0001:00007854       System.GetUILanguages
 0001:00007974       System.FindBS
 0001:00007998       System.ToLongPath
 0001:00007B8C       System.InternalGetLocaleOverride
 0001:00007EA8       System.GetLocaleOverride
 0001:00007F0C       System.SetLocaleOverride
 0001:00007F5C       System.ResouceDLLExists
 0001:00007FC8       System.LoadLanguageList
 0001:00008094       System.Load3LettersModule
 0001:00008160       System.GetResourceModuleName
 0001:0000827C       System.LoadResourceModule
 0001:00008348       System.EnumResourceModules
 0001:00008374       System.AddModuleUnloadProc
 0001:0000837C       System.RemoveModuleUnloadProc
 0001:00008384       System.AddModuleUnloadProc
 0001:000083A4       System.RemoveModuleUnloadProc
 0001:00008408       System.NotifyModuleUnload
 0001:00008464       System.RegisterModule
 0001:00008474       System.UnregisterModule
 0001:000084E4       System.@IntfClear
 0001:000084FC       System.@IntfCopy
 0001:00008528       System.@IntfCast
 0001:00008558       System.@IntfAddRef
 0001:00008564       System.TInterfacedObject.AfterConstruction
 0001:00008570       System.TInterfacedObject.BeforeDestruction
 0001:00008580       System.TInterfacedObject.NewInstance
 0001:00008590       System.TInterfacedObject.QueryInterface
 0001:000085B8       System.TInterfacedObject._AddRef
 0001:000085CC       System.TInterfacedObject._Release
 0001:000085F4       System.UnicodeToUtf8
 0001:00008694       System.Utf8ToUnicode
 0001:00008724       System.UTF8Encode
 0001:00008800       System.UTF8EncodeToShortString
 0001:00008838       System.UTF8ToUnicodeString
 0001:000088E4       System.UTF8ToUnicodeString
 0001:00008974       System.UTF8ToString
 0001:00008988       System.LoadResString
 0001:000089F4       System.LocaleCharsFromUnicode
 0001:00008A1C       System.UnicodeFromLocaleChars
 0001:00008A3C       System.GetCPUCount
 0001:00008A50       System.SetUtf8CompareLocale
 0001:00008A8C       System.TGUID.&op_Equality
 0001:00008AB0       System.TGUID.&op_Inequality
 0001:00008AC4       System.TGUID.Empty
 0001:00008AD4       System.Finalization
 0001:00008B60       SysInit.InterlockedExchange
 0001:00008B70       SysInit.FreeLibrary
 0001:00008B78       SysInit.GetModuleHandle
 0001:00008B80       SysInit.LocalAlloc
 0001:00008B88       SysInit.LocalFree
 0001:00008B90       SysInit.TlsGetValue
 0001:00008B98       SysInit.TlsSetValue
 0001:00008BA0       SysInit.GetLastError
 0001:00008BA8       SysInit.LoadLibraryA
 0001:00008BB0       SysInit.RaiseException
 0001:00008BB8       SysInit.GetProcAddress
 0001:00008BC0       SysInit.@DelayLoadHelper2
 0001:00008BC8       SysInit.AllocTlsBuffer
 0001:00008BD4       SysInit.GetTlsSize
 0001:00008BDC       SysInit.InitThreadTLS
 0001:00008C20       SysInit.@GetTls
 0001:00008C60       SysInit.InitializeModule
 0001:00008C6C       SysInit.@InitExe
 0001:00008CB8       SysInit.@_delayLoadHelper2
 0001:00008F98       SysInit.@_FUnloadDelayLoadedDLL2
 0001:000090A8       SysInit.@_HrLoadAllImportsForDll
 0001:00009160       SysInit.ShutdownDelayHelp2
 0001:00009168       SysInit...
 0001:00009178       SysInit...
 0001:00009188       SysInit...
 0001:00009198       SysInit...
 0001:000091A8       SysInit...
 0001:000091B8       SysInit...
 0001:000091CC       SysInit...
 0001:000091FC       SysInit...
 0001:00009214       SysInit...
 0001:0000923C       SysInit...
 0001:00009260       SysInit...
 0001:00009270       SysInit...
 0001:00009280       SysInit.Finalization
 0001:0000965C       Winapi.Windows.RegCloseKey
 0001:00009664       Winapi.Windows.RegConnectRegistry
 0001:0000966C       Winapi.Windows.RegCreateKeyEx
 0001:00009674       Winapi.Windows.RegDeleteKey
 0001:0000967C       Winapi.Windows.advapi32.dll
 0001:0000968C       Winapi.Windows.$thunk_RegDeleteKeyExW
 0001:0000969C       Winapi.Windows.RegDeleteKeyEx
 0001:000096A4       Winapi.Windows.RegDeleteValue
 0001:000096AC       Winapi.Windows.RegEnumKeyEx
 0001:000096B4       Winapi.Windows.RegEnumValue
 0001:000096BC       Winapi.Windows.RegFlushKey
 0001:000096C4       Winapi.Windows.RegLoadKey
 0001:000096CC       Winapi.Windows.RegOpenKeyEx
 0001:000096D4       Winapi.Windows.RegQueryInfoKey
 0001:000096DC       Winapi.Windows.RegQueryValueEx
 0001:000096E4       Winapi.Windows.RegReplaceKey
 0001:000096EC       Winapi.Windows.RegRestoreKey
 0001:000096F4       Winapi.Windows.RegSaveKey
 0001:000096FC       Winapi.Windows.RegSetValueEx
 0001:00009704       Winapi.Windows.RegUnLoadKey
 0001:0000970C       Winapi.Windows.CloseHandle
 0001:00009714       Winapi.Windows.CompareString
 0001:0000971C       Winapi.Windows.CompareStringW
 0001:00009724       Winapi.Windows.kernel32.dll
 0001:00009734       Winapi.Windows.CreateEvent
 0001:0000973C       Winapi.Windows.CreateFile
 0001:00009744       Winapi.Windows.DeleteCriticalSection
 0001:0000974C       Winapi.Windows.EnterCriticalSection
 0001:00009754       Winapi.Windows.EnumCalendarInfo
 0001:0000975C       Winapi.Windows.EnumSystemLocales
 0001:00009764       Winapi.Windows.FileTimeToDosDateTime
 0001:0000976C       Winapi.Windows.FileTimeToLocalFileTime
 0001:00009774       Winapi.Windows.FileTimeToSystemTime
 0001:0000977C       Winapi.Windows.FindClose
 0001:00009784       Winapi.Windows.FindFirstFile
 0001:0000978C       Winapi.Windows.FindNextFile
 0001:00009794       Winapi.Windows.FindResource
 0001:0000979C       Winapi.Windows.FormatMessage
 0001:000097A4       Winapi.Windows.FreeLibrary
 0001:000097AC       Winapi.Windows.InterlockedCompareExchange
 0001:000097B4       Winapi.Windows.InterlockedExchangeAdd
 0001:000097BC       Winapi.Windows.FreeResource
 0001:000097C4       Winapi.Windows.GetACP
 0001:000097CC       Winapi.Windows.GetCPInfo
 0001:000097D4       Winapi.Windows.GetCPInfoEx
 0001:000097DC       Winapi.Windows.GetCurrentProcess
 0001:000097E4       Winapi.Windows.GetCurrentThreadId
 0001:000097EC       Winapi.Windows.GetDateFormat
 0001:000097F4       Winapi.Windows.GetDiskFreeSpace
 0001:000097FC       Winapi.Windows.GetFileAttributes
 0001:00009804       Winapi.Windows.GetFullPathName
 0001:0000980C       Winapi.Windows.GetLastError
 0001:00009814       Winapi.Windows.GetLocalTime
 0001:0000981C       Winapi.Windows.GetLocaleInfo
 0001:00009824       Winapi.Windows.GetLocaleInfoW
 0001:0000982C       Winapi.Windows.GetModuleFileName
 0001:00009834       Winapi.Windows.GetModuleHandle
 0001:0000983C       Winapi.Windows.GetProcAddress
 0001:00009844       Winapi.Windows.GetProcAddress
 0001:000098B8       Winapi.Windows.GetStdHandle
 0001:000098C0       Winapi.Windows.$thunk_GetNativeSystemInfo
 0001:000098D0       Winapi.Windows.GetNativeSystemInfo
 0001:000098D8       Winapi.Windows.GetThreadLocale
 0001:000098E0       Winapi.Windows.$thunk_LocaleNameToLCID
 0001:000098F0       Winapi.Windows.LocaleNameToLCID
 0001:000098F8       Winapi.Windows.GetVersionEx
 0001:00009900       Winapi.Windows.GetVersionEx
 0001:00009908       Winapi.Windows.InitializeCriticalSection
 0001:00009910       Winapi.Windows.IsValidLocale
 0001:00009918       Winapi.Windows.LeaveCriticalSection
 0001:00009920       Winapi.Windows.LoadLibrary
 0001:00009928       Winapi.Windows.LoadResource
 0001:00009930       Winapi.Windows.LocalFree
 0001:00009938       Winapi.Windows.LockResource
 0001:00009940       Winapi.Windows.ReadFile
 0001:00009948       Winapi.Windows.ResetEvent
 0001:00009950       Winapi.Windows.SetEndOfFile
 0001:00009958       Winapi.Windows.SetEvent
 0001:00009960       Winapi.Windows.SetFilePointer
 0001:00009968       Winapi.Windows.SetLastError
 0001:00009970       Winapi.Windows.SizeofResource
 0001:00009978       Winapi.Windows.SwitchToThread
 0001:00009980       Winapi.Windows.TryEnterCriticalSection
 0001:00009988       Winapi.Windows.VirtualFree
 0001:00009990       Winapi.Windows.VirtualQuery
 0001:00009998       Winapi.Windows.VirtualQueryEx
 0001:000099A0       Winapi.Windows.WaitForSingleObject
 0001:000099A8       Winapi.Windows.WideCharToMultiByte
 0001:000099B0       Winapi.Windows.WriteFile
 0001:000099B8       Winapi.Windows.BeginDeferWindowPos
 0001:000099C0       Winapi.Windows.BeginPaint
 0001:000099C8       Winapi.Windows.CallWindowProc
 0001:000099D0       Winapi.Windows.CharUpperW
 0001:000099D8       Winapi.Windows.DefWindowProc
 0001:000099E0       Winapi.Windows.DeferWindowPos
 0001:000099E8       Winapi.Windows.EnableWindow
 0001:000099F0       Winapi.Windows.EndDeferWindowPos
 0001:000099F8       Winapi.Windows.EndPaint
 0001:00009A00       Winapi.Windows.GetClientRect
 0001:00009A08       Winapi.Windows.GetSystemMetrics
 0001:00009A10       Winapi.Windows.LoadCursor
 0001:00009A18       Winapi.Windows.LoadIcon
 0001:00009A20       Winapi.Windows.LoadString
 0001:00009A28       Winapi.Windows.MessageBox
 0001:00009A30       Winapi.Windows.PostMessage
 0001:00009A38       Winapi.Windows.PostQuitMessage
 0001:00009A40       Winapi.Windows.RegisterClass
 0001:00009A48       Winapi.Windows.SendMessageW
 0001:00009A50       Winapi.Windows.SetTimer
 0001:00009A58       Winapi.Windows.SetWindowTextW
 0001:00009A60       Winapi.Windows.ShowWindow
 0001:00009A68       Winapi.Windows.UpdateWindow
 0001:00009A70       Winapi.Windows._CreateWindowEx
 0001:00009A78       Winapi.Windows._CreateWindowExW
 0001:00009A80       Winapi.Windows.CreateWindow
 0001:00009AD8       Winapi.Windows.CreateWindowW
 0001:00009B30       Winapi.Windows.GetWindowLongPtr
 0001:00009B38       Winapi.Windows.SetWindowLongPtr
 0001:00009B40       Winapi.Windows.InitVersionInfo
 0001:00009B7C       Winapi.Windows.Finalization
 0001:0000A0EC       System.Character.TCharacter.CheckLetter
 0001:0000A0F8       System.Character.TCharacter.CheckLetterOrDigit
 0001:0000A108       System.Character.TCharacter.CheckNumber
 0001:0000A114       System.Character.TCharacter.IsLatin1
 0001:0000A120       System.Character.TCharacter.IsLetter
 0001:0000A1AC       System.Character.TCharacter.IsLetterOrDigit
 0001:0000A214       System.Character.TCharacter.IsAscii
 0001:0000A220       System.Character.TCharacter.GetUnicodeCategory
 0001:0000A280       System.Character.bin_data
 0001:000131BC       System.Character.TCharacter.Initialize
 0001:00013210       System.Character.TCharacter.IsNumber
 0001:00013680       System.Internal.ExcUtils.Finalization
 0001:00013840       System.SysUtils..TLanguages
 0001:00013C84       System.SysUtils..Exception
 0001:0001425C       System.SysUtils..EArgumentException
 0001:00014314       System.SysUtils..EArgumentOutOfRangeException
 0001:000143DC       System.SysUtils..EHeapException
 0001:000144DC       System.SysUtils..EOutOfMemory
 0001:00014584       System.SysUtils..EInOutError
 0001:00014648       System.SysUtils..EExternal
 0001:00014710       System.SysUtils..EExternalException
 0001:000147C8       System.SysUtils..EIntError
 0001:0001486C       System.SysUtils..EDivByZero
 0001:00014914       System.SysUtils..ERangeError
 0001:000149BC       System.SysUtils..EIntOverflow
 0001:00014A64       System.SysUtils..EMathError
 0001:00014B0C       System.SysUtils..EInvalidOp
 0001:00014BB4       System.SysUtils..EZeroDivide
 0001:00014C5C       System.SysUtils..EOverflow
 0001:00014D00       System.SysUtils..EUnderflow
 0001:00014DA8       System.SysUtils..EInvalidPointer
 0001:00014E58       System.SysUtils..EInvalidCast
 0001:00014F00       System.SysUtils..EConvertError
 0001:00014FAC       System.SysUtils..EAccessViolation
 0001:0001505C       System.SysUtils..EPrivilege
 0001:00015104       System.SysUtils..EStackOverflow
 0001:000151B4       System.SysUtils..EControlC
 0001:00015258       System.SysUtils..EVariantError
 0001:00015304       System.SysUtils..EAssertionFailed
 0001:000153B4       System.SysUtils..EAbstractError
 0001:00015464       System.SysUtils..EIntfCastError
 0001:00015514       System.SysUtils..EOSError
 0001:000155D0       System.SysUtils..ESafecallException
 0001:00015688       System.SysUtils..EMonitor
 0001:00015728       System.SysUtils..EMonitorLockException
 0001:000157E4       System.SysUtils..ENoMonitorSupportException
 0001:000158AC       System.SysUtils..ENotImplemented
 0001:00015E7C       System.SysUtils..TThreadLocalCounter
 0001:000160B0       System.SysUtils..TMultiReadExclusiveWriteSynchronizer
 0001:000163C8       System.SysUtils..EEncodingError
 0001:00016478       System.SysUtils..TEncoding
 0001:00016A20       System.SysUtils.TEncoding.GetMaxByteCount
 0001:00016A28       System.SysUtils.TEncoding.GetMaxCharCount
 0001:00016A30       System.SysUtils.TEncoding.GetPreamble
 0001:00016A38       System.SysUtils..TMBCSEncoding
 0001:00016D1C       System.SysUtils..TUTF7Encoding
 0001:00016EE4       System.SysUtils..TUTF8Encoding
 0001:000170C8       System.SysUtils..TUnicodeEncoding
 0001:000172A4       System.SysUtils..TBigEndianUnicodeEncoding
 0001:000173D4       System.SysUtils.TOSVersion.Destroy@
 0001:000173DC       System.SysUtils.InterlockedAdd
 0001:000173E8       System.SysUtils.InterlockedCompareExchange
 0001:000173F0       System.SysUtils.InterlockedCompareExchangePointer
 0001:000173F8       System.SysUtils.InterlockedDecrement
 0001:00017404       System.SysUtils.InterlockedExchange
 0001:00017410       System.SysUtils.InterlockedExchangePointer
 0001:00017418       System.SysUtils.InterlockedIncrement
 0001:00017424       System.SysUtils.DivMod
 0001:00017440       System.SysUtils.ConvertError
 0001:00017458       System.SysUtils.ConvertErrorFmt
 0001:0001747C       System.SysUtils.CharInSet
 0001:0001748C       System.SysUtils.UpperCase
 0001:000174DC       System.SysUtils.LowerCase
 0001:0001752C       System.SysUtils.CompareStr
 0001:00017598       System.SysUtils.CompareMem
 0001:0001762C       System.SysUtils.CompareText
 0001:000176DC       System.SysUtils.AnsiCompareStr
 0001:00017720       System.SysUtils.AnsiCompareText
 0001:00017764       System.SysUtils.Trim
 0001:000177D4       System.SysUtils.AnsiQuotedStr
 0001:00017948       System.SysUtils.AnsiExtractQuotedStr
 0001:00017AA8       System.SysUtils.IsValidIdent
 0001:00017B80       System.SysUtils._IntToStr32
 0001:00017C7C       System.SysUtils._IntToStr64
 0001:00017F8C       System.SysUtils.IntToStr
 0001:00017FB4       System.SysUtils.IntToStr
 0001:00017FF8       System.SysUtils.UIntToStr
 0001:0001800C       System.SysUtils.UIntToStr
 0001:00018028       System.SysUtils._IntToHex
 0001:0001814C       System.SysUtils.IntToHex
 0001:00018168       System.SysUtils.IntToHex
 0001:00018188       System.SysUtils.StrToInt
 0001:000181C4       System.SysUtils.StrToIntDef
 0001:000181DC       System.SysUtils.TryStrToInt
 0001:000181FC       System.SysUtils.TryStrToInt64
 0001:0001821C       System.SysUtils.VerifyBoolStrArray
 0001:000182BC       System.SysUtils.CompareWith
 0001:00018348       System.SysUtils.TryStrToBool
 0001:000183F0       System.SysUtils.BoolToStr
 0001:00018484       System.SysUtils.EnumStringModules
 0001:000184C0       System.SysUtils.FindStringResource
 0001:00018534       System.SysUtils.LoadStr
 0001:00018548       System.SysUtils.FileOpen
 0001:000185A0       System.SysUtils.FileCreate
 0001:000185F4       System.SysUtils.FileRead
 0001:00018620       System.SysUtils.FileWrite
 0001:0001864C       System.SysUtils.FileSeek
 0001:0001869C       System.SysUtils.DirectoryExists
 0001:0001876C       System.SysUtils.FindMatchingFile
 0001:000187F4       System.SysUtils.FindFirst
 0001:00018844       System.SysUtils.FindNext
 0001:00018868       System.SysUtils.FindClose
 0001:00018884       System.SysUtils.LastDelimiter
 0001:000188CC       System.SysUtils.ExtractFileName
 0001:0001890C       System.SysUtils.ExtractFileExt
 0001:00018960       System.SysUtils.ExpandFileName
 0001:000189F4       System.SysUtils.BackfillGetDiskFreeSpaceEx
 0001:00018A68       System.SysUtils.StrEnd
 0001:00018A84       System.SysUtils.StrMove
 0001:00018A94       System.SysUtils.StrLCopy
 0001:00018AD0       System.SysUtils.StrComp
 0001:00018B5C       System.SysUtils.StrLComp
 0001:00018BA4       System.SysUtils.StrLIComp
 0001:00018C1C       System.SysUtils.StrScan
 0001:00018C38       System.SysUtils.StrRScan
 0001:00018C68       System.SysUtils.StrPos
 0001:00018CC0       System.SysUtils.StrPosLen
 0001:00018D20       System.SysUtils.WideStrAlloc
 0001:00018D38       System.SysUtils.StrNew
 0001:00018D64       System.SysUtils.FormatError
 0001:00018DC0       System.SysUtils.FormatBuf
 0001:00018DE0       System.SysUtils.FormatBuf
 0001:00018E00       System.SysUtils.StrLFmt
 0001:00018E1C       System.SysUtils.StrLFmt
 0001:00018E68       System.SysUtils.Format
 0001:00018E90       System.SysUtils.Format
 0001:00018EA8       System.SysUtils.FmtStr
 0001:00018FA0       System.SysUtils.ApplyWidth
 0001:00019014       System.SysUtils.AddBuf
 0001:00019194       System.SysUtils.VariantToUnicodeString
 0001:000191E0       System.SysUtils.WideFormatBuf
 0001:00019BC4       System.SysUtils.PutExponent
 0001:00019C28       System.SysUtils.FloatToText
 0001:00019F48       System.SysUtils.FloatToDecimal
 0001:0001A174       System.SysUtils.TextToFloat
 0001:0001A2C0       System.SysUtils.FloatToStr
 0001:0001A2F4       System.SysUtils.CurrToStr
 0001:0001A328       System.SysUtils.TryStrToFloat
 0001:0001A334       System.SysUtils.TryStrToFloat
 0001:0001A354       System.SysUtils.TryStrToFloat
 0001:0001A3C8       System.SysUtils.TryStrToFloat
 0001:0001A43C       System.SysUtils.TryStrToCurr
 0001:0001A45C       System.SysUtils.ValidateTimeStampDate
 0001:0001A4B4       System.SysUtils.DateTimeToTimeStamp
 0001:0001A500       System.SysUtils.ValidateTimeStamp
 0001:0001A548       System.SysUtils.ValidateMSec
 0001:0001A58C       System.SysUtils.TimeStampToDateTime
 0001:0001A5C8       System.SysUtils.MSecsToTimeStamp
 0001:0001A5F4       System.SysUtils.TimeStampToMSecs
 0001:0001A60C       System.SysUtils.TryEncodeTime
 0001:0001A684       System.SysUtils.EncodeTime
 0001:0001A6C4       System.SysUtils.DecodeTime
 0001:0001A720       System.SysUtils.IsLeapYear
 0001:0001A75C       System.SysUtils.TryEncodeDate
 0001:0001A828       System.SysUtils.EncodeDate
 0001:0001A858       System.SysUtils.DecodeDateFully
 0001:0001A9A4       System.SysUtils.DecodeDate
 0001:0001A9C4       System.SysUtils.DateTimeToSystemTime
 0001:0001AA04       System.SysUtils.SystemTimeToDateTime
 0001:0001AA74       System.SysUtils.DayOfWeek
 0001:0001AA9C       System.SysUtils.CurrentYear
 0001:0001AAE0       System.SysUtils.AppendChars
 0001:0001ABC4       System.SysUtils.AppendString
 0001:0001ABE0       System.SysUtils.AppendNumber
 0001:0001AC2C       System.SysUtils.GetCount
 0001:0001AC60       System.SysUtils.GetDate
 0001:0001AC98       System.SysUtils.GetTime
 0001:0001ACD8       System.SysUtils.ConvertEraString
 0001:0001AE60       System.SysUtils.ConvertYearString
 0001:0001AF88       System.SysUtils.AppendFormat
 0001:0001B824       System.SysUtils.DateTimeToString
 0001:0001B954       System.SysUtils.DateTimeToStr
 0001:0001B96C       System.SysUtils.ScanBlanks
 0001:0001B994       System.SysUtils.ScanNumber
 0001:0001BA2C       System.SysUtils.ScanString
 0001:0001BAC4       System.SysUtils.ScanChar
 0001:0001BAFC       System.SysUtils.GetDateOrder
 0001:0001BB50       System.SysUtils.ScanToNumber
 0001:0001BBB0       System.SysUtils.GetEraYearOffset
 0001:0001BC04       System.SysUtils.EraToYear
 0001:0001BC60       System.SysUtils.ScanDate
 0001:0001BFBC       System.SysUtils.ScanTime
 0001:0001C1BC       System.SysUtils.TryStrToDate
 0001:0001C1FC       System.SysUtils.TryStrToTime
 0001:0001C23C       System.SysUtils.TryStrToDateTime
 0001:0001C458       System.SysUtils.SysErrorMessage
 0001:0001C4F4       System.SysUtils.GetLocaleStr
 0001:0001C540       System.SysUtils.GetLocaleChar
 0001:0001C56C       System.SysUtils.TFormatSettings.Create
 0001:0001C948       System.SysUtils.TFormatSettings.Create
 0001:0001C9F0       System.SysUtils.TFormatSettings.Create
 0001:0001CA00       System.SysUtils.TFormatSettings.AdjustLocaleName
 0001:0001CA34       System.SysUtils.TFormatSettings.GetDayNames
 0001:0001CAF0       System.SysUtils.TFormatSettings.GetMonthNames
 0001:0001CB94       System.SysUtils.TFormatSettings.GetString
 0001:0001CBD0       System.SysUtils.FixDateSeparator
 0001:0001CC00       System.SysUtils.TFormatSettings.TranslateDateFormat
 0001:0001CECC       System.SysUtils.EnumEraNames
 0001:0001CF08       System.SysUtils.EnumEraYearOffsets
 0001:0001CF80       System.SysUtils.GetEraNamesAndYearOffsets
 0001:0001D034       System.SysUtils.ConvertAddr
 0001:0001D040       System.SysUtils.ExceptionErrorMessage
 0001:0001D238       System.SysUtils.ShowException
 0001:0001D37C       System.SysUtils.Exception.Create
 0001:0001D3B8       System.SysUtils.Exception.CreateFmt
 0001:0001D438       System.SysUtils.Exception.CreateRes
 0001:0001D4B0       System.SysUtils.Exception.CreateRes
 0001:0001D4EC       System.SysUtils.Exception.CreateResFmt
 0001:0001D580       System.SysUtils.Exception.CreateResFmt
 0001:0001D614       System.SysUtils.Exception.CreateHelp
 0001:0001D65C       System.SysUtils.Exception.CreateFmtHelp
 0001:0001D6E4       System.SysUtils.Exception.CreateResHelp
 0001:0001D764       System.SysUtils.Exception.CreateResHelp
 0001:0001D7AC       System.SysUtils.Exception.CreateResFmtHelp
 0001:0001D848       System.SysUtils.Exception.CreateResFmtHelp
 0001:0001D8E4       System.SysUtils.Exception.Destroy
 0001:0001D928       System.SysUtils.Exception.GetBaseException
 0001:0001D934       System.SysUtils.Exception.GetStackTrace
 0001:0001D95C       System.SysUtils.Exception.RaiseOuterException
 0001:0001D970       System.SysUtils.Exception.ThrowOuterException
 0001:0001D984       System.SysUtils.Exception.RaisingException
 0001:0001D9B0       System.SysUtils.Exception.SetInnerException
 0001:0001D9D8       System.SysUtils.Exception.SetStackInfo
 0001:0001D9DC       System.SysUtils.Exception.ToString
 0001:0001DA34       System.SysUtils.EHeapException.FreeInstance
 0001:0001DA40       System.SysUtils.EHeapException.RaisingException
 0001:0001DA48       System.SysUtils.CreateInOutError
 0001:0001DAA8       System.SysUtils.ErrorHandler
 0001:0001DB14       System.SysUtils.AssertErrorHandler
 0001:0001DBFC       System.SysUtils.AbstractErrorHandler
 0001:0001DC14       System.SysUtils.MapException
 0001:0001DC94       System.SysUtils.GetExceptionClass
 0001:0001DCB8       System.SysUtils.CreateAVObject
 0001:0001DE84       System.SysUtils.GetExceptionObject
 0001:0001DF64       System.SysUtils.RaiseExceptObject
 0001:0001DF88       System.SysUtils.ExceptHandler
 0001:0001DF98       System.SysUtils.InitExceptions
 0001:0001E028       System.SysUtils.DoneExceptions
 0001:0001E0A8       System.SysUtils.Exception.Destroy@
 0001:0001E0B8       System.SysUtils.WaitForSyncWaitObj
 0001:0001E10C       System.SysUtils.Push
 0001:0001E12C       System.SysUtils.Pop
 0001:0001E14C       System.SysUtils.NewSyncObj
 0001:0001E1B4       System.SysUtils.FreeSyncObj
 0001:0001E1DC       System.SysUtils.NewWaitObj
 0001:0001E21C       System.SysUtils.FreeWaitObj
 0001:0001E248       System.SysUtils.WaitOrSignalObj
 0001:0001E27C       System.SysUtils.InitMonitorSupport
 0001:0001E288       System.SysUtils.CleanStack
 0001:0001E2BC       System.SysUtils.CleanEventList
 0001:0001E2EC       System.SysUtils.DoneMonitorSupport
 0001:0001E320       System.SysUtils.InitPlatformId
 0001:0001E390       System.SysUtils.ByteType
 0001:0001E3E0       System.SysUtils.StrByteType
 0001:0001E414       System.SysUtils.ElementToCharLen
 0001:0001E438       System.SysUtils.ByteToCharLen
 0001:0001E440       System.SysUtils.ElementToCharIndex
 0001:0001E4A4       System.SysUtils.ByteToCharIndex
 0001:0001E4AC       System.SysUtils.CountChars
 0001:0001E538       System.SysUtils.CharToElementIndex
 0001:0001E5AC       System.SysUtils.CharToByteIndex
 0001:0001E5B4       System.SysUtils.CharToElementLen
 0001:0001E618       System.SysUtils.CharToByteLen
 0001:0001E620       System.SysUtils.StrCharLength
 0001:0001E650       System.SysUtils.StrNextChar
 0001:0001E680       System.SysUtils.CharLength
 0001:0001E6B8       System.SysUtils.NextCharIndex
 0001:0001E6F8       System.SysUtils.IsPathDelimiter
 0001:0001E744       System.SysUtils.IncludeTrailingPathDelimiter
 0001:0001E794       System.SysUtils.AnsiPos
 0001:0001E7F4       System.SysUtils.AnsiStrPos
 0001:0001E7FC       System.SysUtils.AnsiStrRScan
 0001:0001E804       System.SysUtils.AnsiStrScan
 0001:0001E80C       System.SysUtils.InitLeadBytes
 0001:0001E868       System.SysUtils.InitSysLocale
 0001:0001E8FC       System.SysUtils.GetFormatSettings
 0001:0001EC28       System.SysUtils.HashNameMBCS
 0001:0001ECC0       System.SysUtils.HashName
 0001:0001ECF8       System.SysUtils.ModuleUnloaded
 0001:0001EE14       System.SysUtils.Sleep
 0001:0001EE1C       System.SysUtils.RaiseLastOSError
 0001:0001EE28       System.SysUtils.RaiseLastOSError
 0001:0001EEC0       System.SysUtils.Win32Check
 0001:0001EED0       System.SysUtils.FreeTerminateProcs
 0001:0001EEF4       System.SysUtils.InitDriveSpacePtr
 0001:0001EF70       System.SysUtils.TThreadLocalCounter.Destroy
 0001:0001EFC8       System.SysUtils.TThreadLocalCounter.HashIndex
 0001:0001EFE4       System.SysUtils.TThreadLocalCounter.Open
 0001:0001F05C       System.SysUtils.TThreadLocalCounter.Close
 0001:0001F064       System.SysUtils.TThreadLocalCounter.Delete
 0001:0001F074       System.SysUtils.TThreadLocalCounter.Recycle
 0001:0001F0B8       System.SysUtils.TMultiReadExclusiveWriteSynchronizer.Create
 0001:0001F12C       System.SysUtils.TMultiReadExclusiveWriteSynchronizer.Destroy
 0001:0001F174       System.SysUtils.TMultiReadExclusiveWriteSynchronizer.BlockReaders
 0001:0001F180       System.SysUtils.TMultiReadExclusiveWriteSynchronizer.UnblockReaders
 0001:0001F18C       System.SysUtils.TMultiReadExclusiveWriteSynchronizer.UnblockOneWriter
 0001:0001F198       System.SysUtils.TMultiReadExclusiveWriteSynchronizer.WaitForReadSignal
 0001:0001F1A8       System.SysUtils.TMultiReadExclusiveWriteSynchronizer.WaitForWriteSignal
 0001:0001F1B8       System.SysUtils.TMultiReadExclusiveWriteSynchronizer.BeginWrite
 0001:0001F270       System.SysUtils.TMultiReadExclusiveWriteSynchronizer.EndWrite
 0001:0001F2C0       System.SysUtils.TMultiReadExclusiveWriteSynchronizer.BeginRead
 0001:0001F330       System.SysUtils.TMultiReadExclusiveWriteSynchronizer.EndRead
 0001:0001F398       System.SysUtils.FreeAndNil
 0001:0001F3A8       System.SysUtils.Supports
 0001:0001F3CC       System.SysUtils.Supports
 0001:0001F464       System.SysUtils.Supports
 0001:0001F4B8       System.SysUtils.EnumLocalesCallback
 0001:0001F4D4       System.SysUtils.GetLocaleDataW
 0001:0001F50C       System.SysUtils.TLanguages.LocalesCallback
 0001:0001F694       System.SysUtils.TLanguages.Create
 0001:0001F6E0       System.SysUtils.TLanguages.Destroy
 0001:0001F704       System.SysUtils.TLanguages.GetCount
 0001:0001F710       System.SysUtils.TLanguages.GetExt
 0001:0001F730       System.SysUtils.TLanguages.GetID
 0001:0001F79C       System.SysUtils.TLanguages.GetLocaleID
 0001:0001F7A8       System.SysUtils.TLanguages.GetLocaleName
 0001:0001F7C8       System.SysUtils.TLanguages.GetName
 0001:0001F7E8       System.SysUtils.TLanguages.GetNameFromLocaleID
 0001:0001F830       System.SysUtils.TLanguages.GetNameFromLCID
 0001:0001F854       System.SysUtils.TLanguages.IndexOf
 0001:0001F884       System.SysUtils.TLanguages.IndexOf
 0001:0001F8C4       System.SysUtils.TLanguages.Destroy@
 0001:0001F8E0       System.SysUtils.Languages
 0001:0001F900       System.SysUtils.ClearHashTables
 0001:0001F930       System.SysUtils.GetEncodingHashIndex
 0001:0001F958       System.SysUtils.GetCodePageFromEncodingName
 0001:0001FA8C       System.SysUtils.TEncoding.Clone
 0001:0001FA90       System.SysUtils.TEncoding.Convert
 0001:0001FB10       System.SysUtils.TEncoding.Convert
 0001:0001FB98       System.SysUtils.TEncoding.Destroy@
 0001:0001FBAC       System.SysUtils.TEncoding.FreeEncodings
 0001:0001FC1C       System.SysUtils.TEncoding.GetANSI
 0001:0001FC60       System.SysUtils.TEncoding.GetBigEndianUnicode
 0001:0001FC98       System.SysUtils.TEncoding.GetBufferEncoding
 0001:0001FCB4       System.SysUtils.ContainsPreamble
 0001:0001FD10       System.SysUtils.TEncoding.GetBufferEncoding
 0001:0001FE2C       System.SysUtils.TEncoding.GetByteCount
 0001:0001FE48       System.SysUtils.TEncoding.GetByteCount
 0001:0001FEF4       System.SysUtils.TEncoding.GetByteCount
 0001:0001FF1C       System.SysUtils.TEncoding.GetByteCount
 0001:0001FFCC       System.SysUtils.TEncoding.GetBytes
 0001:00020024       System.SysUtils.TEncoding.GetBytes
 0001:0002006C       System.SysUtils.TEncoding.GetBytes
 0001:000201D4       System.SysUtils.TEncoding.GetBytes
 0001:00020224       System.SysUtils.TEncoding.GetBytes
 0001:00020370       System.SysUtils.TEncoding.GetCharCount
 0001:0002038C       System.SysUtils.TEncoding.GetCharCount
 0001:00020458       System.SysUtils.TEncoding.GetChars
 0001:000204C4       System.SysUtils.TEncoding.GetChars
 0001:000205C4       System.SysUtils.TEncoding.GetChars
 0001:00020710       System.SysUtils.TEncoding.GetCodePage
 0001:00020714       System.SysUtils.TEncoding.GetDefault
 0001:0002071C       System.SysUtils.TEncoding.GetEncoding
 0001:0002077C       System.SysUtils.TEncoding.GetEncoding
 0001:000207F8       System.SysUtils.TEncoding.GetEncodingName
 0001:00020804       System.SysUtils.TEncoding.GetString
 0001:00020828       System.SysUtils.TEncoding.GetString
 0001:00020898       System.SysUtils.TEncoding.GetUnicode
 0001:000208D0       System.SysUtils.TEncoding.GetUTF8
 0001:00020908       System.SysUtils.TEncoding.IsStandardEncoding
 0001:00020944       System.SysUtils.TMBCSEncoding.Create
 0001:00020988       System.SysUtils.TMBCSEncoding.Create
 0001:000209D0       System.SysUtils.TMBCSEncoding.Create
 0001:00020A5C       System.SysUtils.TMBCSEncoding.Clone
 0001:00020A80       System.SysUtils.TMBCSEncoding.GetByteCount
 0001:00020A98       System.SysUtils.TMBCSEncoding.GetBytes
 0001:00020ABC       System.SysUtils.TMBCSEncoding.GetCharCount
 0001:00020AD0       System.SysUtils.TMBCSEncoding.GetChars
 0001:00020AF0       System.SysUtils.TMBCSEncoding.GetCodePage
 0001:00020AF4       System.SysUtils.TMBCSEncoding.GetEncodingName
 0001:00020B34       System.SysUtils.TMBCSEncoding.GetMaxByteCount
 0001:00020B3C       System.SysUtils.TMBCSEncoding.GetMaxCharCount
 0001:00020B40       System.SysUtils.TMBCSEncoding.GetPreamble
 0001:00020C98       System.SysUtils.TUTF7Encoding.Create
 0001:00020CD8       System.SysUtils.TUTF7Encoding.Clone
 0001:00020CE8       System.SysUtils.TUTF7Encoding.GetMaxByteCount
 0001:00020CF0       System.SysUtils.TUTF7Encoding.GetMaxCharCount
 0001:00020CF4       System.SysUtils.TUTF8Encoding.Create
 0001:00020D38       System.SysUtils.TUTF8Encoding.Clone
 0001:00020D48       System.SysUtils.TUTF8Encoding.GetMaxByteCount
 0001:00020D50       System.SysUtils.TUTF8Encoding.GetMaxCharCount
 0001:00020D54       System.SysUtils.TUTF8Encoding.GetPreamble
 0001:00020DDC       System.SysUtils.TUnicodeEncoding.Create
 0001:00020E08       System.SysUtils.TUnicodeEncoding.Clone
 0001:00020E18       System.SysUtils.TUnicodeEncoding.GetByteCount
 0001:00020E20       System.SysUtils.TUnicodeEncoding.GetBytes
 0001:00020E3C       System.SysUtils.TUnicodeEncoding.GetCharCount
 0001:00020E48       System.SysUtils.TUnicodeEncoding.GetChars
 0001:00020E68       System.SysUtils.TUnicodeEncoding.GetCodePage
 0001:00020E70       System.SysUtils.TUnicodeEncoding.GetEncodingName
 0001:00020EB0       System.SysUtils.TUnicodeEncoding.GetMaxByteCount
 0001:00020EB8       System.SysUtils.TUnicodeEncoding.GetMaxCharCount
 0001:00020EC8       System.SysUtils.TUnicodeEncoding.GetPreamble
 0001:00020F48       System.SysUtils.TBigEndianUnicodeEncoding.Clone
 0001:00020F58       System.SysUtils.TBigEndianUnicodeEncoding.GetBytes
 0001:00020F8C       System.SysUtils.TBigEndianUnicodeEncoding.GetChars
 0001:00020FC8       System.SysUtils.TBigEndianUnicodeEncoding.GetCodePage
 0001:00020FD0       System.SysUtils.TBigEndianUnicodeEncoding.GetEncodingName
 0001:0002102C       System.SysUtils.TBigEndianUnicodeEncoding.GetPreamble
 0001:000210AC       System.SysUtils.TOSVersion.Check
 0001:00021338       System.SysUtils.Finalization
 0001:000214D4       System.VarUtils.VariantInit
 0001:000214DC       System.VarUtils.VariantClear
 0001:000214E4       System.VarUtils.VariantCopy
 0001:000214EC       System.VarUtils.VariantChangeType
 0001:000214F4       System.VarUtils.BackupVariantChangeTypeEx
 0001:0002153C       System.VarUtils.UniUnimplemented
 0001:00021548       System.VarUtils.BiUnimplemented
 0001:00021554       System.VarUtils.CmpUnimplemented
 0001:00021560       System.VarUtils.BackupVarI4FromStr
 0001:000215CC       System.VarUtils.BackupVarR4FromStr
 0001:0002163C       System.VarUtils.BackupVarR8FromStr
 0001:000216AC       System.VarUtils.BackupVarDateFromStr
 0001:0002171C       System.VarUtils.BackupVarCyFromStr
 0001:0002178C       System.VarUtils.BackupVarBoolFromStr
 0001:0002180C       System.VarUtils.BackupVarBStrFromCy
 0001:00021894       System.VarUtils.BackupVarBStrFromDate
 0001:0002191C       System.VarUtils.BackupVarBStrFromBool
 0001:00021990       System.VarUtils.SafeArrayCreate
 0001:00021998       System.VarUtils.SafeArrayGetLBound
 0001:000219A0       System.VarUtils.SafeArrayGetUBound
 0001:000219A8       System.VarUtils.SafeArrayPtrOfIndex
 0001:000219B0       System.VarUtils.FindProc
 0001:000219DC       System.VarUtils.InitializeVarUtils
 0001:00021CF4       System.VarUtils.Finalization
 0001:00021DA8       System.Variants..TCustomVariantType
 0001:000222B0       System.Variants.TCustomVariantType.Clear
 0001:000222B8       System.Variants.TCustomVariantType.Copy
 0001:000222C0       System.Variants..EVariantInvalidOpError
 0001:00022380       System.Variants..EVariantTypeCastError
 0001:0002243C       System.Variants..EVariantOverflowError
 0001:000224F8       System.Variants..EVariantInvalidArgError
 0001:000225B8       System.Variants..EVariantBadVarTypeError
 0001:00022678       System.Variants..EVariantBadIndexError
 0001:00022734       System.Variants..EVariantArrayLockedError
 0001:000227F4       System.Variants..EVariantArrayCreateError
 0001:000228B4       System.Variants..EVariantNotImplError
 0001:0002296C       System.Variants..EVariantOutOfMemoryError
 0001:00022A2C       System.Variants..EVariantUnexpectedError
 0001:00022AEC       System.Variants..EVariantDispatchError
 0001:00022BA8       System.Variants..EVariantInvalidNullOpError
 0001:00022C70       System.Variants.VarCastError
 0001:00022CC4       System.Variants.VarCastError
 0001:00022D60       System.Variants.VarInvalidOp
 0001:00022DB4       System.Variants.VarInvalidNullOp
 0001:00022E08       System.Variants.VarOverflowError
 0001:00022EA4       System.Variants.VarArrayCreateError
 0001:00022EF8       System.Variants.TranslateResult
 0001:0002314C       System.Variants.VarResultCheck
 0001:00023158       System.Variants.VarResultCheck
 0001:0002318C       System.Variants.HandleConversionException
 0001:00023210       System.Variants.@DispInvokeError
 0001:00023264       System.Variants.@VarNull
 0001:00023278       System.Variants.ElementCount
 0001:000232B4       System.Variants.VarArrayClear
 0001:00023350       System.Variants.VarClearDeep
 0001:000233E4       System.Variants.@VarClear
 0001:000233F8       System.Variants.@VarClr
 0001:00023400       System.Variants.InBounds
 0001:00023430       System.Variants.Increment
 0001:00023488       System.Variants.VarArrayCopyForEach
 0001:00023654       System.Variants.VarCopyCopyProc
 0001:0002365C       System.Variants.VarCopyDeep
 0001:00023748       System.Variants.@VarCopy
 0001:00023784       System.Variants.VarCastAsAny
 0001:000237F0       System.Variants.VarCastAsOleStr
 0001:0002383C       System.Variants.VarCastAsString
 0001:00023888       System.Variants.VarCastAsUString
 0001:000238D4       System.Variants.VarCastAsDispatch
 0001:00023920       System.Variants.VarCastAsInterface
 0001:0002396C       System.Variants.VarCastViaOS
 0001:000239EC       System.Variants.VarCastRare
 0001:00023A58       System.Variants.@VarCast
 0001:00023CAC       System.Variants.VarToIntAsString
 0001:00023D60       System.Variants.VarToIntViaOS
 0001:00023D9C       System.Variants.VarToIntAny
 0001:00023E00       System.Variants.VarToIntCustom
 0001:00023E44       System.Variants.@VarToInteger
 0001:000242E8       System.Variants.@VarToShortInt
 0001:0002439C       System.Variants.@VarToByte
 0001:00024444       System.Variants.@VarToSmallInt
 0001:0002453C       System.Variants.@VarToWord
 0001:00024618       System.Variants.@VarToLongWord
 0001:00024704       System.Variants.VarToInt64ViaOS
 0001:000247B0       System.Variants.VarToInt64AsString
 0001:000248B0       System.Variants.VarToInt64Any
 0001:0002491C       System.Variants.VarToInt64Custom
 0001:00024968       System.Variants.@VarToInt64
 0001:00024DF0       System.Variants.@VarToUInt64
 0001:00024F60       System.Variants.VarToBoolAsString
 0001:00025024       System.Variants.VarToBoolViaOS
 0001:00025064       System.Variants.VarToBoolAny
 0001:000250C8       System.Variants.VarToBoolCustom
 0001:00025114       System.Variants.@VarToBoolean
 0001:000254B0       System.Variants.@VarToBool
 0001:000254BC       System.Variants.VarToDoubleAsString
 0001:00025588       System.Variants.VarToDoubleViaOS
 0001:000255D4       System.Variants.VarToDoubleAny
 0001:00025638       System.Variants.VarToDoubleCustom
 0001:00025684       System.Variants.@VarToDouble
 0001:00025A74       System.Variants.@VarToReal
 0001:00025A90       System.Variants.@VarToSingle
 0001:00025C54       System.Variants.VarToDateAsString
 0001:00025D4C       System.Variants.VarToDateAsDouble
 0001:00025DAC       System.Variants.VarToDateViaOS
 0001:00025DF8       System.Variants.VarToDateAny
 0001:00025E5C       System.Variants.VarToDateCustom
 0001:00025EA8       System.Variants.@VarToDate
 0001:0002628C       System.Variants.VarToCurrencyAsString
 0001:00026350       System.Variants.VarToCurrencyAsDouble
 0001:000263B0       System.Variants.VarToCurrencyViaOS
 0001:000263FC       System.Variants.VarToCurrencyAny
 0001:00026460       System.Variants.VarToCurrencyCustom
 0001:000264AC       System.Variants.@VarToCurrency
 0001:00026908       System.Variants.CurrToWStrViaOS
 0001:00026940       System.Variants.DateToWStrViaOS
 0001:00026978       System.Variants.BoolToWStrViaOS
 0001:00026A40       System.Variants.VarToLStrViaOS
 0001:00026AF8       System.Variants.VarToLStrAny
 0001:00026B5C       System.Variants.VarToLStrCustom
 0001:00026BE4       System.Variants.@VarToLStr
 0001:00027338       System.Variants.VarToWStrViaOS
 0001:00027404       System.Variants.VarToWStrAny
 0001:00027468       System.Variants.VarToWStrCustom
 0001:00027544       System.Variants.@VarToWStr
 0001:00027BE8       System.Variants.VarToUStrAny
 0001:00027C4C       System.Variants.VarToUStrCustom
 0001:00027D14       System.Variants.@VarToUStr
 0001:000283C8       System.Variants.AnyToIntf
 0001:00028440       System.Variants.@VarToIntf
 0001:0002850C       System.Variants.@VarToDisp
 0001:000285B8       System.Variants.@VarFromInt
 0001:000285F4       System.Variants.@VarFromInteger
 0001:00028614       System.Variants.@VarFromByte
 0001:00028634       System.Variants.@VarFromWord
 0001:00028654       System.Variants.@VarFromLongWord
 0001:00028674       System.Variants.@VarFromUInt64
 0001:000286A0       System.Variants.@VarFromShortInt
 0001:000286C0       System.Variants.@VarFromSmallInt
 0001:000286E0       System.Variants.@VarFromInt64
 0001:0002870C       System.Variants.@VarFromSingle
 0001:00028730       System.Variants.@VarFromDouble
 0001:0002875C       System.Variants.@VarFromCurrency
 0001:00028788       System.Variants.@VarFromDate
 0001:000287B4       System.Variants.@VarFromBool
 0001:000287DC       System.Variants.@VarFromReal
 0001:000287FC       System.Variants.@VarFromTDateTime
 0001:0002881C       System.Variants.@VarFromCurr
 0001:0002883C       System.Variants.@VarFromLStr
 0001:00028868       System.Variants.@VarFromWStr
 0001:000288A0       System.Variants.@VarFromUStr
 0001:000288CC       System.Variants.@VarFromIntf
 0001:000288F8       System.Variants.@VarFromDisp
 0001:00028924       System.Variants.CheckType
 0001:00028950       System.Variants.VarCompareAny
 0001:00028A28       System.Variants.EmptyCompare
 0001:00028A3C       System.Variants.NullCompare
 0001:00028B30       System.Variants.IntCompare
 0001:00028B44       System.Variants.Int64Compare
 0001:00028B80       System.Variants.UInt64Compare
 0001:00028BB4       System.Variants.RealCompare
 0001:00028BE0       System.Variants.DateCompare
 0001:00028C0C       System.Variants.CurrCompare
 0001:00028C3C       System.Variants.StringCompare
 0001:00028CA8       System.Variants.VarCompareSimple
 0001:00028E60       System.Variants.VarCompareRare
 0001:00029280       System.Variants.VarCompare
 0001:0002930C       System.Variants.@VarAddRef
 0001:00029588       System.Variants.VarTypeAsText
 0001:0002973C       System.Variants.FindVarData
 0001:0002974C       System.Variants.VarIsClear
 0001:000297C0       System.Variants.VarSameValue
 0001:00029838       System.Variants.GetVarDataArrayInfo
 0001:0002987C       System.Variants.VarIsArray
 0001:00029884       System.Variants.VarIsArray
 0001:000298DC       System.Variants.ClearVariantTypeList
 0001:0002994C       System.Variants.TCustomVariantType.BinaryOp
 0001:00029958       System.Variants.TCustomVariantType.Cast
 0001:00029990       System.Variants.TCustomVariantType.CastTo
 0001:000299D8       System.Variants.TCustomVariantType.Compare
 0001:000299E4       System.Variants.TCustomVariantType.CompareOp
 0001:00029A1C       System.Variants.TCustomVariantType.CastToOle
 0001:00029A58       System.Variants.TCustomVariantType.Create
 0001:00029A9C       System.Variants.TCustomVariantType.Create
 0001:00029D18       System.Variants.TCustomVariantType.Destroy
 0001:00029DA8       System.Variants.TCustomVariantType.IsClear
 0001:00029DAC       System.Variants.TCustomVariantType.LeftPromotion
 0001:00029DC0       System.Variants.TCustomVariantType.OlePromotion
 0001:00029DC8       System.Variants.TCustomVariantType.RaiseCastError
 0001:00029DD0       System.Variants.TCustomVariantType.RaiseInvalidOp
 0001:00029DD8       System.Variants.TCustomVariantType.RaiseDispError
 0001:00029DE0       System.Variants.TCustomVariantType.RightPromotion
 0001:00029DF4       System.Variants.TCustomVariantType.UnaryOp
 0001:00029DFC       System.Variants.TCustomVariantType.DispInvoke
 0001:00029E08       System.Variants.TCustomVariantType._AddRef
 0001:00029E14       System.Variants.TCustomVariantType._Release
 0001:00029E20       System.Variants.TCustomVariantType.QueryInterface
 0001:00029E48       System.Variants.FindCustomVariantType
 0001:00029F08       System.Variants.FindCustomVariantType
 0001:0002A01C       System.Variants.Null
 0001:0002A024       System.Variants.@VarCmpEQ
 0001:0002A034       System.Variants.Finalization
 0001:0002A328       System.TypInfo.GetPropName
 0001:0002A378       System.TypInfo.GetTypeData
 0001:0002A384       System.TypInfo.GetEnumName
 0001:0002A4B8       System.TypInfo.UTF8SameText
 0001:0002A518       System.TypInfo.GetEnumNameValue
 0001:0002A590       System.TypInfo.GetEnumValue
 0001:0002A6C0       System.TypInfo.InternalGetPropInfo
 0001:0002A774       System.TypInfo.GetPropInfo
 0001:0002A7C8       System.TypInfo.GetPropInfos
 0001:0002A81C       System.TypInfo.IsStoredProp
 0001:0002A84C       System.TypInfo.GetOrdProp
 0001:0002A8C0       System.TypInfo.SetOrdProp
 0001:0002A91C       System.TypInfo.GetSetElementName
 0001:0002A9B0       System.TypInfo.GetSetElementValue
 0001:0002AA50       System.TypInfo.GetShortStrProp
 0001:0002AA94       System.TypInfo.SetShortStrProp
 0001:0002AAE8       System.TypInfo.GetShortStrPropAsLongStr
 0001:0002AB18       System.TypInfo.SetShortStrPropAsLongStr
 0001:0002AB4C       System.TypInfo.GetLongStrProp
 0001:0002AB8C       System.TypInfo.SetLongStrProp
 0001:0002ABCC       System.TypInfo.GetWideStrPropAsLongStr
 0001:0002AC28       System.TypInfo.SetWideStrPropAsLongStr
 0001:0002AC80       System.TypInfo.GetUnicodeStrPropAsLongStr
 0001:0002ACDC       System.TypInfo.SetUnicodeStrPropAsLongStr
 0001:0002AD34       System.TypInfo.GetAnsiStrProp
 0001:0002AD80       System.TypInfo.SetAnsiStrProp
 0001:0002ADBC       System.TypInfo.GetWideStrProp
 0001:0002AE64       System.TypInfo.SetWideStrProp
 0001:0002AF04       System.TypInfo.GetUnicodeStrProp
 0001:0002AFB0       System.TypInfo.SetRawByteStrProp
 0001:0002B0BC       System.TypInfo.SetUnicodeStrProp
 0001:0002B184       System.TypInfo.GetFloatProp
 0001:0002B244       System.TypInfo.SetFloatProp
 0001:0002B310       System.TypInfo.AssignVariant
 0001:0002B324       System.TypInfo.GetVariantProp
 0001:0002B364       System.TypInfo.SetVariantProp
 0001:0002B3A4       System.TypInfo..{System.TypInfo}TPropSet<System.WideString>
 0001:0002B524       System.TypInfo..{System.TypInfo}TPropSet<System.string>
 0001:0002B69C       System.TypInfo..{System.TypInfo}TPropSet<System.Single>
 0001:0002B808       System.TypInfo..{System.TypInfo}TPropSet<System.Double>
 0001:0002B974       System.TypInfo..{System.TypInfo}TPropSet<System.Extended>
 0001:0002BAE4       System.TypInfo..{System.TypInfo}TPropSet<System.Comp>
 0001:0002BC4C       System.TypInfo..{System.TypInfo}TPropSet<System.Currency>
 0001:0002BDBC       System.TypInfo.GetMethodProp
 0001:0002BDFC       System.TypInfo.SetMethodProp
 0001:0002BE34       System.TypInfo.GetInt64Prop
 0001:0002BE5C       System.TypInfo.SetInt64Prop
 0001:0002BE98       System.TypInfo.GetInterfaceProp
 0001:0002BEB4       System.TypInfo.SetInterfaceProp
 0001:0002BEC4       System.TypInfo.Finalization
 0001:0002BF14       System.TypInfo..{System.TypInfo}TPropSet<System.IInterface>
 0001:0002C094       System.TypInfo.{System.TypInfo}TPropSet<System.WideString>.GetProc
 0001:0002C11C       System.TypInfo.{System.TypInfo}TPropSet<System.WideString>.SetProc
 0001:0002C1A0       System.TypInfo.{System.TypInfo}TPropSet<System.string>.GetProc
 0001:0002C228       System.TypInfo.{System.TypInfo}TPropSet<System.string>.SetProc
 0001:0002C2AC       System.TypInfo.{System.TypInfo}TPropSet<System.Single>.GetProc
 0001:0002C330       System.TypInfo.{System.TypInfo}TPropSet<System.Single>.SetProc
 0001:0002C3AC       System.TypInfo.{System.TypInfo}TPropSet<System.Double>.GetProc
 0001:0002C438       System.TypInfo.{System.TypInfo}TPropSet<System.Double>.SetProc
 0001:0002C4C0       System.TypInfo.{System.TypInfo}TPropSet<System.Extended>.GetProc
 0001:0002C554       System.TypInfo.{System.TypInfo}TPropSet<System.Extended>.SetProc
 0001:0002C5F0       System.TypInfo.{System.TypInfo}TPropSet<System.Comp>.GetProc
 0001:0002C67C       System.TypInfo.{System.TypInfo}TPropSet<System.Comp>.SetProc
 0001:0002C704       System.TypInfo.{System.TypInfo}TPropSet<System.Currency>.GetProc
 0001:0002C790       System.TypInfo.{System.TypInfo}TPropSet<System.Currency>.SetProc
 0001:0002C818       System.TypInfo.{System.TypInfo}TPropSet<System.IInterface>.GetProc
 0001:0002C8A0       System.TypInfo.{System.TypInfo}TPropSet<System.IInterface>.SetProc
 0001:0002C9B4       System.Classes..EStreamError
 0001:0002CA5C       System.Classes..EFileStreamError
 0001:0002CB64       System.Classes..EFCreateError
 0001:0002CC0C       System.Classes..EFOpenError
 0001:0002CCB4       System.Classes..EFilerError
 0001:0002CD5C       System.Classes..EReadError
 0001:0002CE04       System.Classes..EWriteError
 0001:0002CEAC       System.Classes..EClassNotFound
 0001:0002CF5C       System.Classes..EInvalidImage
 0001:0002D004       System.Classes..EResNotFound
 0001:0002D0AC       System.Classes..EListError
 0001:0002D154       System.Classes..EStringListError
 0001:0002D204       System.Classes..EComponentError
 0001:0002D420       System.Classes..TListEnumerator
 0001:0002D604       System.Classes..TList
 0001:0002DDC0       System.Classes..TThreadList
 0001:0002E100       System.Classes..TInterfaceListEnumerator
 0001:0002E410       System.Classes..TInterfaceList
 0001:0002E9A0       System.Classes..TPersistent
 0001:0002EB20       System.Classes..TCollectionItem
 0001:0002ED98       System.Classes..TCollectionEnumerator
 0001:0002EF4C       System.Classes..TCollection
 0001:0002F554       System.Classes..TStringsEnumerator
 0001:0002F704       System.Classes..TStrings
 0001:00030788       System.Classes.TStrings.Get
 0001:00030790       System.Classes.TStrings.Clear
 0001:00030798       System.Classes.TStrings.Delete
 0001:000307A0       System.Classes.TStrings.Insert
 0001:00030888       System.Classes..TStringList
 0001:00030F5C       System.Classes..TStream
 0001:00031560       System.Classes.TStream.Read
 0001:00031568       System.Classes.TStream.Write
 0001:00031570       System.Classes..THandleStream
 0001:00031794       System.Classes..TFileStream
 0001:00031984       System.Classes..TCustomMemoryStream
 0001:00031BDC       System.Classes..TMemoryStream
 0001:00031E34       System.Classes..TResourceStream
 0001:000320B8       System.Classes..TClassFinder
 0001:00032530       System.Classes..TFiler
 0001:000328EC       System.Classes.TFiler.DefineProperty
 0001:000328F4       System.Classes.TFiler.DefineBinaryProperty
 0001:000328FC       System.Classes.TFiler.FlushBuffer
 0001:00032F54       System.Classes..TReader
 0001:00033E64       System.Classes..TWriter
 0001:000348C4       System.Classes..TComponentEnumerator
 0001:00034CAC       System.Classes..TObservers
 0001:000350F4       System.Classes..EObserverException
 0001:0003525C       System.Classes..TComponent
 0001:00035C54       System.Classes..TBasicActionLink
 0001:00035E80       System.Classes..TBasicAction
 0001:0003631C       System.Classes.NextChar
 0001:00036358       System.Classes..TRegGroup
 0001:000367C0       System.Classes..TRegGroups
 0001:00036C94       System.Classes.TRegGroup.AddClass
 0001:00036CA0       System.Classes.TRegGroup.BestClass
 0001:00036D00       System.Classes.TRegGroup.BestGroup
 0001:00036D70       System.Classes.TRegGroup.Create
 0001:00036DCC       System.Classes.TRegGroup.Destroy
 0001:00036E08       System.Classes.TRegGroup.GetClass
 0001:00036E58       System.Classes.TRegGroup.GetClasses
 0001:00036EA0       System.Classes.TRegGroup.IndexOfClass
 0001:00036F18       System.Classes.TRegGroup.InGroup
 0001:00036F5C       System.Classes.TRegGroup.RegisterClass
 0001:00037010       System.Classes.TRegGroup.RegisterClassAlias
 0001:00037048       System.Classes.TRegGroup.Registered
 0001:00037060       System.Classes.TRegGroup.UnregisterClass
 0001:000370C0       System.Classes.TRegGroup.UnregisterModuleClasses
 0001:00037200       System.Classes.TRegGroups.Activate
 0001:0003724C       System.Classes.TRegGroups.AddClass
 0001:0003726C       System.Classes.TRegGroups.Create
 0001:000372D4       System.Classes.TRegGroups.Destroy
 0001:0003732C       System.Classes.TRegGroups.FindGroup
 0001:00037370       System.Classes.TRegGroups.GetClass
 0001:000373B4       System.Classes.TRegGroups.GroupedWith
 0001:000373D4       System.Classes.Error
 0001:00037458       System.Classes.TRegGroups.GroupWith
 0001:0003752C       System.Classes.TRegGroups.Lock
 0001:00037538       System.Classes.TRegGroups.RegisterClass
 0001:00037550       System.Classes.TRegGroups.RegisterClassAlias
 0001:00037570       System.Classes.TRegGroups.Registered
 0001:000375B4       System.Classes.TRegGroups.StartGroup
 0001:00037604       System.Classes.TRegGroups.Unlock
 0001:0003760C       System.Classes.TRegGroups.UnregisterClass
 0001:0003763C       System.Classes.TRegGroups.UnregisterModuleClasses
 0001:0003768C       System.Classes.TClassFinder.Create
 0001:000377C4       System.Classes.TClassFinder.Destroy
 0001:000377F0       System.Classes.TClassFinder.GetClass
 0001:0003787C       System.Classes.TClassFinder.GetClasses
 0001:000378EC       System.Classes.GetFieldClassTable
 0001:000378F8       System.Classes.ClassNotFound
 0001:00037964       System.Classes.GetClass
 0001:000379BC       System.Classes.FindClass
 0001:000379DC       System.Classes.UnRegisterModuleClasses
 0001:00037A2C       System.Classes.FindIntToIdent
 0001:00037AA8       System.Classes.FindIdentToInt
 0001:00037B24       System.Classes.FindGlobalComponent
 0001:00037B64       System.Classes.IsUniqueGlobalComponentName
 0001:00037B88       System.Classes.WriteCollection
 0001:00037BF4       System.Classes.CollectionsEqual
 0001:00037D10       System.Classes.TListEnumerator.Create
 0001:00037D54       System.Classes.TListEnumerator.GetCurrent
 0001:00037D60       System.Classes.TListEnumerator.MoveNext
 0001:00037D78       System.Classes.TList.Destroy
 0001:00037D98       System.Classes.TList.Add
 0001:00037DD8       System.Classes.TList.Clear
 0001:00037DF0       System.Classes.TList.Delete
 0001:00037E58       System.Classes.TList.Error
 0001:00037E90       System.Classes.TList.Error
 0001:00037F04       System.Classes.TList.Exchange
 0001:00037F5C       System.Classes.TList.Expand
 0001:00037F74       System.Classes.TList.First
 0001:00037F7C       System.Classes.TList.Get
 0001:00037FA0       System.Classes.TList.GetEnumerator
 0001:00037FB0       System.Classes.TList.Grow
 0001:00037FE4       System.Classes.TList.IndexOf
 0001:00038008       System.Classes.TList.IndexOfItem
 0001:0003803C       System.Classes.TList.Insert
 0001:000380B4       System.Classes.TList.Last
 0001:000380D8       System.Classes.TList.Move
 0001:00038130       System.Classes.TList.Put
 0001:00038190       System.Classes.TList.Remove
 0001:00038198       System.Classes.TList.RemoveItem
 0001:000381B8       System.Classes.TList.Pack
 0001:0003822C       System.Classes.TList.SetCapacity
 0001:00038268       System.Classes.TList.SetCount
 0001:00038304       System.Classes.QuickSort
 0001:0003849C       System.Classes..TList.Sort$267$ActRec
 0001:00038568       System.Classes.TList.Sort$267$ActRec.$0$Body
 0001:00038574       System.Classes.TList.Sort
 0001:000385F0       System.Classes.TList.SortList
 0001:00038608       System.Classes.TList.Extract
 0001:00038610       System.Classes.TList.ExtractItem
 0001:00038660       System.Classes.TList.Notify
 0001:00038664       System.Classes.TList.Assign
 0001:00038930       System.Classes.TThreadList.Create
 0001:00038988       System.Classes.TThreadList.Destroy
 0001:00038A04       System.Classes.TThreadList.Add
 0001:00038A8C       System.Classes.TThreadList.Clear
 0001:00038AD4       System.Classes.TThreadList.LockList
 0001:00038AF8       System.Classes.TThreadList.Remove
 0001:00038B00       System.Classes.TThreadList.RemoveItem
 0001:00038B54       System.Classes.TThreadList.UnlockList
 0001:00038B60       System.Classes.TInterfaceListEnumerator.Create
 0001:00038BA4       System.Classes.TInterfaceListEnumerator.GetCurrent
 0001:00038BBC       System.Classes.TInterfaceListEnumerator.MoveNext
 0001:00038BD8       System.Classes.TInterfaceList.Create
 0001:00038C1C       System.Classes.TInterfaceList.Destroy
 0001:00038C58       System.Classes.TInterfaceList.Clear
 0001:00038CCC       System.Classes.TInterfaceList.Delete
 0001:00038D30       System.Classes.TInterfaceList.Expand
 0001:00038D88       System.Classes.TInterfaceList.First
 0001:00038D9C       System.Classes.TInterfaceList.Get
 0001:00038E14       System.Classes.TInterfaceList.GetCapacity
 0001:00038E68       System.Classes.TInterfaceList.GetCount
 0001:00038EBC       System.Classes.TInterfaceList.GetEnumerator
 0001:00038ECC       System.Classes.TInterfaceList.IndexOf
 0001:00038ED4       System.Classes.TInterfaceList.IndexOfItem
 0001:00038F34       System.Classes.TInterfaceList.Add
 0001:00038FA4       System.Classes.TInterfaceList.Insert
 0001:00039010       System.Classes.TInterfaceList.Last
 0001:0003906C       System.Classes.TInterfaceList.Put
 0001:000390E4       System.Classes.TInterfaceList.Remove
 0001:000390EC       System.Classes.TInterfaceList.RemoveItem
 0001:00039170       System.Classes.TInterfaceList.SetCapacity
 0001:000391C4       System.Classes.TInterfaceList.SetCount
 0001:00039218       System.Classes.TInterfaceList.Exchange
 0001:00039270       System.Classes.TInterfaceList.Lock
 0001:0003927C       System.Classes.TInterfaceList.Unlock
 0001:00039288       System.Classes.TPersistent.Destroy
 0001:000392B4       System.Classes.TPersistent.Assign
 0001:000392C8       System.Classes.TPersistent.AssignError
 0001:00039384       System.Classes.TPersistent.AssignTo
 0001:0003938C       System.Classes.TPersistent.DefineProperties
 0001:00039390       System.Classes.TPersistent.GetNamePath
 0001:00039428       System.Classes.TPersistent.GetOwner
 0001:0003942C       System.Classes.GetDesigner
 0001:000394CC       System.Classes.NotifyDesigner
 0001:00039530       System.Classes.TCollectionItem.Create
 0001:00039568       System.Classes.TCollectionItem.Destroy
 0001:00039598       System.Classes.TCollectionItem.Changed
 0001:000395BC       System.Classes.TCollectionItem.GetIndex
 0001:000395D4       System.Classes.TCollectionItem.GetDisplayName
 0001:000395E8       System.Classes.TCollectionItem.GetNamePath
 0001:00039694       System.Classes.TCollectionItem.GetOwner
 0001:00039698       System.Classes.TCollectionItem.SetCollection
 0001:000396C0       System.Classes.TCollectionItem.SetDisplayName
 0001:000396C8       System.Classes.TCollectionItem.SetIndex
 0001:000396F8       System.Classes.TCollectionEnumerator.Create
 0001:0003973C       System.Classes.TCollectionEnumerator.GetCurrent
 0001:00039748       System.Classes.TCollectionEnumerator.MoveNext
 0001:00039764       System.Classes.TCollection.Create
 0001:000397B0       System.Classes.TCollection.Destroy
 0001:000397FC       System.Classes.TCollection.Add
 0001:0003981C       System.Classes.TCollection.Assign
 0001:000398C4       System.Classes.TCollection.BeginUpdate
 0001:000398C8       System.Classes.TCollection.Changed
 0001:000398D8       System.Classes.TCollection.Clear
 0001:00039940       System.Classes.TCollection.EndUpdate
 0001:0003994C       System.Classes.TCollection.FindItemID
 0001:0003997C       System.Classes.TCollection.GetAttrCount
 0001:00039980       System.Classes.TCollection.GetAttr
 0001:0003998C       System.Classes.TCollection.GetEnumerator
 0001:0003999C       System.Classes.TCollection.GetCapacity
 0001:000399A4       System.Classes.TCollection.GetItemAttr
 0001:000399C4       System.Classes.TCollection.GetCount
 0001:000399CC       System.Classes.TCollection.GetItem
 0001:000399E0       System.Classes.TCollection.GetNamePath
 0001:00039A94       System.Classes.TCollection.GetPropName
 0001:00039BE8       System.Classes.TCollection.Insert
 0001:00039C04       System.Classes.TCollection.InsertItem
 0001:00039C6C       System.Classes.TCollection.RemoveItem
 0001:00039CC0       System.Classes.TCollection.SetCapacity
 0001:00039CD0       System.Classes.TCollection.SetItem
 0001:00039CF0       System.Classes.TCollection.SetItemName
 0001:00039CF4       System.Classes.TCollection.Update
 0001:00039CF8       System.Classes.TCollection.Delete
 0001:00039D28       System.Classes.TCollection.Owner
 0001:00039D34       System.Classes.TCollection.Added
 0001:00039D38       System.Classes.TCollection.Deleting
 0001:00039D3C       System.Classes.TCollection.Notify
 0001:00039D60       System.Classes.TStringsEnumerator.Create
 0001:00039DA4       System.Classes.TStringsEnumerator.GetCurrent
 0001:00039DBC       System.Classes.TStringsEnumerator.MoveNext
 0001:00039DD8       System.Classes.TStrings.Create
 0001:00039E20       System.Classes.TStrings.Destroy
 0001:00039E90       System.Classes.TStrings.Add
 0001:00039EB4       System.Classes.TStrings.AddObject
 0001:00039ED8       System.Classes.TStrings.Append
 0001:00039EE4       System.Classes.TStrings.AddStrings
 0001:00039F9C       System.Classes.TStrings.AddStrings
 0001:0003A000       System.Classes.TStrings.AddStrings
 0001:0003A0A4       System.Classes.TStrings.Assign
 0001:0003A180       System.Classes.TStrings.BeginUpdate
 0001:0003A198       System.Classes.DoWrite
 0001:0003A1E8       System.Classes.TStrings.DefineProperties
 0001:0003A240       System.Classes.TStrings.EndUpdate
 0001:0003A254       System.Classes.TStrings.Equals
 0001:0003A2FC       System.Classes.TStrings.Error
 0001:0003A380       System.Classes.TStrings.Exchange
 0001:0003A46C       System.Classes.TStrings.ExtractName
 0001:0003A4E8       System.Classes.TStrings.GetCapacity
 0001:0003A4F0       System.Classes.TStrings.GetCommaText
 0001:0003A588       System.Classes.TStrings.GetDelimitedText
 0001:0003A7F8       System.Classes.TStrings.GetEnumerator
 0001:0003A808       System.Classes.TStrings.GetName
 0001:0003A868       System.Classes.TStrings.GetObject
 0001:0003A86C       System.Classes.TStrings.GetText
 0001:0003A8C0       System.Classes.TStrings.GetTextStr
 0001:0003AA04       System.Classes.TStrings.GetValue
 0001:0003AA90       System.Classes.TStrings.IndexOf
 0001:0003AB1C       System.Classes.TStrings.IndexOfName
 0001:0003ABF0       System.Classes.TStrings.IndexOfObject
 0001:0003AC24       System.Classes.TStrings.InsertObject
 0001:0003AC54       System.Classes.TStrings.LoadFromFile
 0001:0003ACA8       System.Classes.TStrings.LoadFromFile
 0001:0003AD04       System.Classes.TStrings.LoadFromStream
 0001:0003AD10       System.Classes.TStrings.LoadFromStream
 0001:0003AE14       System.Classes.TStrings.Move
 0001:0003AED4       System.Classes.TStrings.Put
 0001:0003AF04       System.Classes.TStrings.PutObject
 0001:0003AF08       System.Classes.TStrings.ReadData
 0001:0003AFB8       System.Classes.TStrings.SaveToFile
 0001:0003AFC8       System.Classes.TStrings.SaveToFile
 0001:0003B028       System.Classes.TStrings.SaveToStream
 0001:0003B038       System.Classes.TStrings.SaveToStream
 0001:0003B0F4       System.Classes.TStrings.SetCapacity
 0001:0003B0F8       System.Classes.TStrings.SetCommaText
 0001:0003B190       System.Classes.TStrings.SetStringsAdapter
 0001:0003B1C4       System.Classes.TStrings.SetText
 0001:0003B214       System.Classes.TStrings.SetTextStr
 0001:0003B3C0       System.Classes.TStrings.SetUpdateState
 0001:0003B3C4       System.Classes.TStrings.SetValue
 0001:0003B478       System.Classes.TStrings.WriteData
 0001:0003B4FC       System.Classes.TStrings.SetDelimitedText
 0001:0003B6AC       System.Classes.TStrings.GetDelimiter
 0001:0003B6C8       System.Classes.TStrings.GetLineBreak
 0001:0003B704       System.Classes.TStrings.GetQuoteChar
 0001:0003B720       System.Classes.TStrings.GetStrictDelimiter
 0001:0003B738       System.Classes.TStrings.SetDefaultEncoding
 0001:0003B780       System.Classes.TStrings.SetDelimiter
 0001:0003B7A0       System.Classes.TStrings.SetEncoding
 0001:0003B7E8       System.Classes.TStrings.SetLineBreak
 0001:0003B814       System.Classes.TStrings.SetQuoteChar
 0001:0003B834       System.Classes.TStrings.SetStrictDelimiter
 0001:0003B850       System.Classes.TStrings.CompareStrings
 0001:0003B85C       System.Classes.TStrings.GetNameValueSeparator
 0001:0003B878       System.Classes.TStrings.SetNameValueSeparator
 0001:0003B898       System.Classes.TStrings.GetValueFromIndex
 0001:0003B934       System.Classes.TStrings.SetValueFromIndex
 0001:0003B9E4       System.Classes.TStrings.ToStringArray
 0001:0003BA7C       System.Classes.TStrings.ToObjectArray
 0001:0003BACC       System.Classes.TStringList.Destroy
 0001:0003BBC0       System.Classes.TStringList.Add
 0001:0003BBD0       System.Classes.TStringList.AddObject
 0001:0003BC34       System.Classes.TStringList.Assign
 0001:0003BC70       System.Classes.TStringList.Changed
 0001:0003BC8C       System.Classes.TStringList.Changing
 0001:0003BCA8       System.Classes.TStringList.Clear
 0001:0003BD80       System.Classes.TStringList.Delete
 0001:0003BE18       System.Classes.TStringList.Exchange
 0001:0003BE74       System.Classes.TStringList.ExchangeItems
 0001:0003BE98       System.Classes.TStringList.Find
 0001:0003BF1C       System.Classes.TStringList.Get
 0001:0003BF4C       System.Classes.TStringList.GetCapacity
 0001:0003BF50       System.Classes.TStringList.GetCount
 0001:0003BF54       System.Classes.TStringList.GetObject
 0001:0003BF78       System.Classes.TStringList.Grow
 0001:0003BFAC       System.Classes.TStringList.IndexOf
 0001:0003BFE8       System.Classes.TStringList.Insert
 0001:0003BFF8       System.Classes.TStringList.InsertObject
 0001:0003C04C       System.Classes.TStringList.InsertItem
 0001:0003C0C8       System.Classes.TStringList.Put
 0001:0003C120       System.Classes.TStringList.PutObject
 0001:0003C15C       System.Classes.TStringList.QuickSort
 0001:0003C1F4       System.Classes.TStringList.SetCapacity
 0001:0003C230       System.Classes.TStringList.SetSorted
 0001:0003C250       System.Classes.TStringList.SetUpdateState
 0001:0003C270       System.Classes.StringListCompareStrings
 0001:0003C290       System.Classes.TStringList.Sort
 0001:0003C2A0       System.Classes.TStringList.CustomSort
 0001:0003C2D8       System.Classes.TStringList.CompareStrings
 0001:0003C2F4       System.Classes.TStringList.Create
 0001:0003C32C       System.Classes.TStringList.Create
 0001:0003C370       System.Classes.TStringList.SetCaseSensitive
 0001:0003C398       System.Classes.TStream.GetPosition
 0001:0003C3B8       System.Classes.TStream.SetPosition
 0001:0003C3CC       System.Classes.TStream.GetSize
 0001:0003C418       System.Classes.TStream.SetSize
 0001:0003C41C       System.Classes.TStream.SetSize64
 0001:0003C430       System.Classes.TStream.SetSize
 0001:0003C484       System.Classes.RaiseException
 0001:0003C4F8       System.Classes.TStream.Seek
 0001:0003C57C       System.Classes.TStream.Seek
 0001:0003C5EC       System.Classes.TStream.ReadBuffer
 0001:0003C64C       System.Classes.TStream.WriteBuffer
 0001:0003C6AC       System.Classes.TStream.CopyFrom
 0001:0003C7A0       System.Classes.TStream.ReadComponent
 0001:0003C800       System.Classes.TStream.WriteComponent
 0001:0003C808       System.Classes.TStream.WriteDescendent
 0001:0003C864       System.Classes.TStream.ReadComponentRes
 0001:0003C880       System.Classes.TStream.WriteComponentRes
 0001:0003C888       System.Classes.TStream.WriteResourceHeader
 0001:0003CAEC       System.Classes.TStream.FixupResourceHeader
 0001:0003CBA8       System.Classes.TStream.WriteDescendentRes
 0001:0003CBDC       System.Classes.TStream.ReadResHeader
 0001:0003CCC4       System.Classes.THandleStream.Create
 0001:0003CD00       System.Classes.THandleStream.Read
 0001:0003CD10       System.Classes.THandleStream.Write
 0001:0003CD20       System.Classes.THandleStream.Seek
 0001:0003CD4C       System.Classes.THandleStream.SetSize
 0001:0003CD60       System.Classes.THandleStream.SetSize
 0001:0003CD88       System.Classes.TFileStream.Create
 0001:0003CDCC       System.Classes.TFileStream.Create
 0001:0003CF44       System.Classes.TFileStream.Destroy
 0001:0003CF78       System.Classes.TCustomMemoryStream.SetPointer
 0001:0003CF80       System.Classes.TCustomMemoryStream.Read
 0001:0003CFB8       System.Classes.TCustomMemoryStream.Seek
 0001:0003CFFC       System.Classes.TCustomMemoryStream.SaveToStream
 0001:0003D014       System.Classes.TCustomMemoryStream.SaveToFile
 0001:0003D06C       System.Classes.TMemoryStream.Destroy
 0001:0003D098       System.Classes.TMemoryStream.Clear
 0001:0003D0B0       System.Classes.TMemoryStream.LoadFromStream
 0001:0003D0E8       System.Classes.TMemoryStream.LoadFromFile
 0001:0003D13C       System.Classes.TMemoryStream.SetCapacity
 0001:0003D164       System.Classes.TMemoryStream.SetSize
 0001:0003D190       System.Classes.TMemoryStream.Realloc
 0001:0003D210       System.Classes.TMemoryStream.Write
 0001:0003D260       System.Classes.TResourceStream.Create
 0001:0003D2B8       System.Classes.TResourceStream.CreateFromID
 0001:0003D30C       System.Classes.Error
 0001:0003D3AC       System.Classes.TResourceStream.Initialize
 0001:0003D418       System.Classes.TResourceStream.Destroy
 0001:0003D448       System.Classes.TResourceStream.Write
 0001:0003D460       System.Classes.TFiler.Create
 0001:0003D4A8       System.Classes.TFiler.Destroy
 0001:0003D4D0       System.Classes.TFiler.SetRoot
 0001:0003D4D4       System.Classes..TPropFixup
 0001:0003D710       System.Classes..TPropIntfFixup
 0001:0003D804       System.Classes.TPropFixup.Create
 0001:0003D85C       System.Classes.TPropFixup.MakeGlobalReference
 0001:0003D8BC       System.Classes.TPropFixup.ResolveReference
 0001:0003D8CC       System.Classes.TPropIntfFixup.ResolveReference
 0001:0003D950       System.Classes.FindNestedComponent
 0001:0003DA9C       System.Classes.AddFinished
 0001:0003DAD4       System.Classes.AddNotFinished
 0001:0003DB1C       System.Classes.GlobalFixupReferences
 0001:0003DCEC       System.Classes.RemoveFixupReferences
 0001:0003DE0C       System.Classes.RemoveFixups
 0001:0003DE94       System.Classes.ReadError
 0001:0003DEAC       System.Classes.PropValueError
 0001:0003DEB8       System.Classes.PropertyNotFound
 0001:0003DEE4       System.Classes.SetElementValue
 0001:0003DEFC       System.Classes.TReader.Destroy
 0001:0003DF34       System.Classes.TReader.BeginReferences
 0001:0003DF9C       System.Classes.TReader.CheckValue
 0001:0003DFC0       System.Classes.TReader.DefineProperty
 0001:0003E068       System.Classes.TReader.DefineBinaryProperty
 0001:0003E1BC       System.Classes.TReader.EndOfList
 0001:0003E1D0       System.Classes.TReader.EndReferences
 0001:0003E1EC       System.Classes.TReader.Error
 0001:0003E210       System.Classes.TReader.FindMethodInstance
 0001:0003E280       System.Classes.TReader.FindMethod
 0001:0003E2D0       System.Classes.RemoveGlobalFixup
 0001:0003E350       System.Classes.TReader.DoFixupReferences
 0001:0003E494       System.Classes.TReader.FixupReferences
 0001:0003E4CC       System.Classes.TReader.FlushBuffer
 0001:0003E4F0       System.Classes.TReader.FreeFixups
 0001:0003E52C       System.Classes.TReader.GetFieldClass
 0001:0003E5C0       System.Classes.TReader.GetPosition
 0001:0003E5D8       System.Classes.TReader.NextValue
 0001:0003E5E8       System.Classes.TReader.PropertyError
 0001:0003E5FC       System.Classes.TReader.Read
 0001:0003E648       System.Classes.TReader.ReadBuffer
 0001:0003E684       System.Classes.TReader.ReadBoolean
 0001:0003E6B0       System.Classes.TReader.ReadChar
 0001:0003E710       System.Classes.TReader.ReadWideChar
 0001:0003E770       System.Classes.TReader.ReadCollection
 0001:0003E854       System.Classes.AddSubComponentsToLoaded
 0001:0003E890       System.Classes.CheckSubComponents
 0001:0003E908       System.Classes.SetSubComponentState
 0001:0003E96C       System.Classes.ComponentCreated
 0001:0003E98C       System.Classes.Recover
 0001:0003E9EC       System.Classes.CreateComponent
 0001:0003EAFC       System.Classes.SetCompName
 0001:0003EB9C       System.Classes.FindExistingComponent
 0001:0003EC3C       System.Classes.TReader.ReadComponent
 0001:0003EE7C       System.Classes.TReader.ReadData
 0001:0003EEEC       System.Classes.TReader.ReadDataInner
 0001:0003EFBC       System.Classes.TReader.ReadFloat
 0001:0003EFF4       System.Classes.TReader.ReadDouble
 0001:0003F038       System.Classes.TReader.ReadSingle
 0001:0003F07C       System.Classes.TReader.ReadCurrency
 0001:0003F0CC       System.Classes.TReader.ReadDate
 0001:0003F110       System.Classes.TReader.ReadIdent
 0001:0003F298       System.Classes.TReader.ReadInteger
 0001:0003F304       System.Classes.TReader.ReadInt64
 0001:0003F348       System.Classes.TReader.ReadListBegin
 0001:0003F350       System.Classes.TReader.ReadListEnd
 0001:0003F358       System.Classes.TReader.ReadPrefix
 0001:0003F398       System.Classes.HandleException
 0001:0003F468       System.Classes.PropPathError
 0001:0003F484       System.Classes.TReader.ReadProperty
 0001:0003F6DC       System.Classes.SetIntIdent
 0001:0003F724       System.Classes.SetObjectIdent
 0001:0003F764       System.Classes.SetVariantReference
 0001:0003F7C0       System.Classes.SetInterfaceReference
 0001:0003F880       System.Classes.TReader.ReadPropValue
 0001:0003FBF8       System.Classes.FindUniqueName
 0001:0003FC60       System.Classes.TReader.ReadRootComponent
 0001:0003FF94       System.Classes.TReader.ReadComponents
 0001:00040084       System.Classes.TReader.ReadSet
 0001:00040140       System.Classes.TReader.ReadSignature
 0001:00040164       System.Classes.TReader.ReadStr
 0001:000401F4       System.Classes.TReader.ReadString
 0001:000402DC       System.Classes.TReader.ReadWideString
 0001:0004041C       System.Classes.TReader.ReadValue
 0001:00040430       System.Classes.TReader.SetPosition
 0001:00040450       System.Classes.TReader.SkipSetBody
 0001:00040498       System.Classes.SkipList
 0001:000404C4       System.Classes.SkipBinary
 0001:000404F4       System.Classes.SkipCollection
 0001:00040558       System.Classes.TReader.SkipValue
 0001:00040708       System.Classes.CopySetBody
 0001:00040790       System.Classes.CopyList
 0001:000407DC       System.Classes.CopyBytes
 0001:0004086C       System.Classes.CopyBinary
 0001:000408C4       System.Classes.TReader.CopyValue
 0001:00040AAC       System.Classes.TReader.SkipProperty
 0001:00040AF4       System.Classes.TReader.SkipComponent
 0001:00040BA0       System.Classes.TReader.FindAncestorComponent
 0001:00040C58       System.Classes.TReader.ReferenceName
 0001:00040C70       System.Classes.TReader.SetName
 0001:00040C98       System.Classes.TReader.FindComponentClass
 0001:00040D0C       System.Classes.TReader.SkipBytes
 0001:00040D54       System.Classes.ReadCustomVariant
 0001:00040F1C       System.Classes.TReader.ReadVariant
 0001:0004113C       System.Classes.TWriter.Destroy
 0001:00041168       System.Classes.TWriter.AddAncestor
 0001:00041174       System.Classes.TWriter.DefineProperty
 0001:0004119C       System.Classes.TWriter.DefineBinaryProperty
 0001:000411C8       System.Classes.TWriter.GetPosition
 0001:000411D8       System.Classes.TWriter.FindMethodName
 0001:00041220       System.Classes.TWriter.FlushBuffer
 0001:00041228       System.Classes.TWriter.SetPosition
 0001:00041264       System.Classes.TWriter.SetRoot
 0001:0004127C       System.Classes.TWriter.Write
 0001:000412C8       System.Classes.TWriter.WriteBinary
 0001:00041350       System.Classes.TWriter.WriteBuffer
 0001:00041368       System.Classes.TWriter.WriteBoolean
 0001:0004137C       System.Classes.TWriter.WriteChar
 0001:000413CC       System.Classes.TWriter.WriteWideChar
 0001:0004141C       System.Classes.TWriter.WriteCollection
 0001:000414BC       System.Classes.FindAncestor
 0001:0004157C       System.Classes.TWriter.WriteComponent
 0001:000416D0       System.Classes.TWriter.WriteData
 0001:00041A90       System.Classes.TWriter.WriteDescendent
 0001:00041AB8       System.Classes.TWriter.WriteFloat
 0001:00041ADC       System.Classes.TWriter.WriteSingle
 0001:00041B00       System.Classes.TWriter.WriteDouble
 0001:00041B24       System.Classes.TWriter.WriteCurrency
 0001:00041B48       System.Classes.TWriter.WriteDate
 0001:00041B6C       System.Classes.TWriter.WriteIdent
 0001:00041D74       System.Classes.TWriter.WriteInteger
 0001:00041DE8       System.Classes.TWriter.WriteInteger
 0001:00041E40       System.Classes.TWriter.WriteListBegin
 0001:00041E48       System.Classes.TWriter.WriteListEnd
 0001:00041E50       System.Classes.TWriter.WritePrefix
 0001:00041E98       System.Classes.TWriter.WriteProperties
 0001:00041F60       System.Classes.AncestorIsValid
 0001:00041F78       System.Classes.IsDefaultOrdProp
 0001:00041FD0       System.Classes.IsDefaultFloatProp
 0001:0004202C       System.Classes.IsDefaultInt64Prop
 0001:00042084       System.Classes.IsDefaultStrProp
 0001:00042114       System.Classes.ObjectAncestorMatch
 0001:000421C0       System.Classes.IsDefault
 0001:00042218       System.Classes.IsDefaultObjectProp
 0001:00042298       System.Classes.IsDefaultValue
 0001:00042364       System.Classes.IsDefaultInterfaceProp
 0001:00042440       System.Classes.FindMethodName
 0001:00042498       System.Classes.IsDefaultMethodProp
 0001:00042538       System.Classes.IsDefaultVariantProp
 0001:000425D0       System.Classes.IsDefaultPropertyValue
 0001:00042734       System.Classes.WritePropPath
 0001:0004278C       System.Classes.WriteSet
 0001:00042820       System.Classes.WriteIntProp
 0001:0004288C       System.Classes.WriteCollectionProp
 0001:00042930       System.Classes.WriteOrdProp
 0001:00042A28       System.Classes.WriteFloatProp
 0001:00042A68       System.Classes.WriteInt64Prop
 0001:00042AA4       System.Classes.WriteStrProp
 0001:00042B1C       System.Classes.OwnedBy
 0001:00042B34       System.Classes.GetComponentValue
 0001:00042C74       System.Classes.WriteObjectProp
 0001:00042E88       System.Classes.WriteInterfaceProp
 0001:00042F64       System.Classes.WriteMethodProp
 0001:00042FF4       System.Classes.WriteVariantProp
 0001:00043058       System.Classes.TWriter.WriteProperty
 0001:000431AC       System.Classes.TWriter.WriteVariant
 0001:0004358C       System.Classes.TWriter.WritePropName
 0001:000435E0       System.Classes.TWriter.WriteRootComponent
 0001:000435E8       System.Classes.TWriter.WriteSignature
 0001:000435F8       System.Classes.TWriter.WriteStr
 0001:0004364C       System.Classes.TWriter.WriteMinStr
 0001:00043710       System.Classes.TWriter.WriteString
 0001:000437C4       System.Classes.TWriter.WriteUTF8Str
 0001:00043858       System.Classes.TWriter.WriteWideString
 0001:00043860       System.Classes.TWriter.WriteValue
 0001:00043874       System.Classes.TWriter.GetLookupInfo
 0001:00043898       System.Classes.TComponentEnumerator.Create
 0001:000438DC       System.Classes.TComponentEnumerator.GetCurrent
 0001:000438E8       System.Classes.TComponentEnumerator.MoveNext
 0001:00043904       System.Classes.TComponent.Create
 0001:00043950       System.Classes.TComponent.Destroy
 0001:000439A0       System.Classes.TComponent.BeforeDestruction
 0001:000439AC       System.Classes.TComponent.RemoveFreeNotifications
 0001:000439EC       System.Classes.TComponent.FreeNotification
 0001:00043A40       System.Classes.TComponent.ReadLeft
 0001:00043A54       System.Classes.TComponent.ReadTop
 0001:00043A68       System.Classes.TComponent.WriteLeft
 0001:00043A74       System.Classes.TComponent.WriteTop
 0001:00043A80       System.Classes.TComponent.Insert
 0001:00043ABC       System.Classes.TComponent.Remove
 0001:00043B34       System.Classes.TComponent.InsertComponent
 0001:00043B98       System.Classes.TComponent.RemoveComponent
 0001:00043BD0       System.Classes.TComponent.DestroyComponents
 0001:00043C3C       System.Classes.TComponent.Destroying
 0001:00043C78       System.Classes.TComponent.RemoveNotification
 0001:00043CD0       System.Classes.TComponent.RemoveFreeNotification
 0001:00043CEC       System.Classes.TComponent.Notification
 0001:00043D4C       System.Classes.TComponent.DefineProperties
 0001:00043DE4       System.Classes.TComponent.HasParent
 0001:00043DE8       System.Classes.TComponent.GetChildren
 0001:00043DF0       System.Classes.TComponent.GetChildOwner
 0001:00043DF4       System.Classes.TComponent.GetChildParent
 0001:00043DF8       System.Classes.TComponent.GetEnumerator
 0001:00043E08       System.Classes.TComponent.GetNamePath
 0001:00043E1C       System.Classes.TComponent.GetOwner
 0001:00043E20       System.Classes.TComponent.SetChildOrder
 0001:00043E24       System.Classes.TComponent.GetParentComponent
 0001:00043E28       System.Classes.TComponent.SetParentComponent
 0001:00043E2C       System.Classes.TComponent.Updating
 0001:00043E38       System.Classes.TComponent.Updated
 0001:00043E44       System.Classes.TComponent.Loaded
 0001:00043E50       System.Classes.TComponent.PaletteCreated
 0001:00043E54       System.Classes.TComponent.ReadState
 0001:00043E5C       System.Classes.TComponent.WriteState
 0001:00043E64       System.Classes.TComponent.ValidateRename
 0001:00043F68       System.Classes.TComponent.ValidateContainer
 0001:00043F7C       System.Classes.TComponent.ValidateInsert
 0001:00044030       System.Classes..TComponent.FindComponent$891$ActRec
 0001:00044100       System.Classes.TComponent.FindComponent$891$ActRec.$0$Body
 0001:0004410C       System.Classes.TComponent.FindComponent
 0001:000441F8       System.Classes.TComponent.FindSortedComponent
 0001:00044278       System.Classes.TComponent.AddSortedComponent
 0001:0004429C       System.Classes.TComponent.SetName
 0001:0004432C       System.Classes.TComponent.ChangeName
 0001:00044364       System.Classes.TComponent.GetComponentIndex
 0001:00044380       System.Classes.TComponent.GetComponent
 0001:000443AC       System.Classes.TComponent.GetComponentCount
 0001:000443BC       System.Classes.TComponent.SetComponentIndex
 0001:0004456C       System.Classes..TComponent.GetObservers$902$ActRec
 0001:00044654       System.Classes.TComponent.GetObservers$902$ActRec.$0$Body
 0001:00044660       System.Classes.TComponent.GetObservers$902$ActRec.$1$Body
 0001:00044678       System.Classes.TComponent.GetObservers
 0001:00044724       System.Classes.TComponent.SetDesigning
 0001:00044774       System.Classes.TComponent.SetReference
 0001:0004479C       System.Classes.TComponent.ExecuteAction
 0001:000447C4       System.Classes.TComponent.UpdateAction
 0001:000447EC       System.Classes.TComponent.SetSubComponent
 0001:00044800       System.Classes.TComponent.CanObserve
 0001:00044804       System.Classes.TComponent.ObserverAdded
 0001:00044808       System.Classes.TComponent.GetComObject
 0001:000448C0       System.Classes.TComponent.SafeCallException
 0001:000448D8       System.Classes.TComponent.FreeOnRelease
 0001:000448E8       System.Classes.TComponent.UpdateRegistry
 0001:000448F0       System.Classes.TComponent.QueryInterface
 0001:00044930       System.Classes.TComponent._AddRef
 0001:00044950       System.Classes.TComponent._Release
 0001:00044970       System.Classes.TComponent.IntfGetComponent
 0001:00044974       System.Classes.TComponent.IsImplementorOf
 0001:000449F4       System.Classes.TComponent.ReferenceInterface
 0001:00044A9C       System.Classes.TBasicActionLink.Create
 0001:00044AE0       System.Classes.TBasicActionLink.AssignClient
 0001:00044AE4       System.Classes.TBasicActionLink.Destroy
 0001:00044B18       System.Classes.TBasicActionLink.Change
 0001:00044B30       System.Classes.TBasicActionLink.Execute
 0001:00044B4C       System.Classes.TBasicActionLink.SetAction
 0001:00044B78       System.Classes.TBasicActionLink.IsOnExecuteLinked
 0001:00044B7C       System.Classes.TBasicActionLink.SetOnExecute
 0001:00044B84       System.Classes.TBasicActionLink.Update
 0001:00044B90       System.Classes.TBasicAction.Create
 0001:00044BD4       System.Classes.TBasicAction.Destroy
 0001:00044C3C       System.Classes.TBasicAction.HandlesTarget
 0001:00044C40       System.Classes.TBasicAction.ExecuteTarget
 0001:00044C44       System.Classes.TBasicAction.Notification
 0001:00044C6C       System.Classes.TBasicAction.UpdateTarget
 0001:00044C70       System.Classes.TBasicAction.Execute
 0001:00044C8C       System.Classes.TBasicAction.Update
 0001:00044CA8       System.Classes.TBasicAction.SetOnExecute
 0001:00044D04       System.Classes.TBasicAction.Change
 0001:00044D18       System.Classes.TBasicAction.RegisterChanges
 0001:00044D24       System.Classes.TBasicAction.UnRegisterChanges
 0001:00044D64       System.Classes.TBasicAction.SetActionComponent
 0001:00044D90       System.Classes.FreeIntConstList
 0001:00044E00       System.Classes.ModuleUnload
 0001:00044E08       System.Classes.CleanupInstFreeList
 0001:00044E44       System.Classes.GetFreeInstBlockItemCount
 0001:00044E74       System.Classes.ReleaseObjectInstanceBlocks
 0001:00044ED8       System.Classes.EFileStreamError.Create
 0001:00044F88       System.Classes.TObservers.Create
 0001:00044FF0       System.Classes.TObservers.Destroy
 0001:00045024       System.Classes.TObservers.CanObserve
 0001:0004503C       System.Classes.TObservers.AddObserver
 0001:0004522C       System.Classes.TObservers.AddObserver
 0001:0004524C       System.Classes.TObservers.GetMultiCastObserver
 0001:00045400       System.Classes.TObservers.GetSingleCastObserver
 0001:0004555C       System.Classes.TObservers.IsObserving
 0001:00045674       System.Classes.TObservers.TryIsObserving
 0001:000457AC       System.Classes.TObservers.RemoveObserver
 0001:000457CC       System.Classes.TObservers.RemoveObserver
 0001:000458D8       System.Classes.Finalization
 0001:000459A8       System.Math.IsNan
 0001:000459EC       System.Math.SetFPUExceptionMask
 0001:00045A14       System.Math.SetExceptionMask
 0001:00045A2C       System.Math.GetSSEType
 0001:00045AA0       System.Math.InitSSEType
 0001:00045AB8       System.Math.Finalization
 0001:00045AC0       System.TimeSpan.TTimeSpan.Destroy@
 0001:00046298       System.TimeSpan.TTimeSpanParser.CurrentChar
 0001:000462C0       System.TimeSpan.TTimeSpanParser.NextChar
 0001:00046300       System.TimeSpan.TTimeSpanParser.NextNonDigit
 0001:00046340       System.TimeSpan.TTimeSpanParser.Convert
 0001:00046410       System.TimeSpan.TTimeSpanParser.NextInt
 0001:00046518       System.TimeSpan.TTimeSpanParser.ConvertTime
 0001:00046830       System.TimeSpan.TTimeSpanParser.SkipWhite
 0001:000468BC       System.TimeSpan.TTimeSpanParser.TryConvert
 0001:00046B28       System.TimeSpan.TTimeSpan.Create
 0001:00046B3C       System.TimeSpan.TTimeSpan.Create
 0001:00046C1C       System.TimeSpan.TTimeSpan.Create
 0001:00046C3C       System.TimeSpan.TTimeSpan.Create
 0001:00046D68       System.TimeSpan.TTimeSpan.Add
 0001:00046E34       System.TimeSpan.TTimeSpan.&op_Addition
 0001:00046E4C       System.TimeSpan.TTimeSpan.&op_Addition
 0001:00046EB8       System.TimeSpan.TTimeSpan.&op_Addition
 0001:00046ED8       System.TimeSpan.TTimeSpan.Duration
 0001:00046F7C       System.TimeSpan.TTimeSpan.&op_Equality
 0001:00046F94       System.TimeSpan.TTimeSpan.&op_Explicit
 0001:00046FA8       System.TimeSpan.TTimeSpan.FromDays
 0001:00046FC8       System.TimeSpan.TTimeSpan.FromHours
 0001:00046FE8       System.TimeSpan.TTimeSpan.FromMilliseconds
 0001:00047008       System.TimeSpan.TTimeSpan.FromMinutes
 0001:00047028       System.TimeSpan.TTimeSpan.FromSeconds
 0001:00047048       System.TimeSpan.TTimeSpan.FromTicks
 0001:00047060       System.TimeSpan.TTimeSpan.GetTotalMilliseconds
 0001:000470DC       System.TimeSpan.TTimeSpan.&op_GreaterThan
 0001:000470F8       System.TimeSpan.TTimeSpan.&op_GreaterThanOrEqual
 0001:00047114       System.TimeSpan.TTimeSpan.&op_Implicit
 0001:00047128       System.TimeSpan.TTimeSpan.GetScaledInterval
 0001:0004725C       System.TimeSpan.TTimeSpan.&op_LessThan
 0001:00047278       System.TimeSpan.TTimeSpan.&op_LessThanOrEqual
 0001:00047294       System.TimeSpan.TTimeSpan.Negate
 0001:0004731C       System.TimeSpan.TTimeSpan.&op_UnaryNegation
 0001:00047330       System.TimeSpan.TTimeSpan.&op_Inequality
 0001:00047348       System.TimeSpan.TTimeSpan.Parse
 0001:000473AC       System.TimeSpan.TTimeSpan.&op_UnaryPlus
 0001:000473B8       System.TimeSpan.TTimeSpan.&op_Subtraction
 0001:000473D0       System.TimeSpan.TTimeSpan.Subtract
 0001:0004749C       System.TimeSpan.TTimeSpan.ToString
 0001:00047684       System.TimeSpan.TTimeSpan.TryParse
 0001:00047718       System.TimeSpan.TTimeSpan.Subtract
 0001:00047778       System.TimeSpan.TTimeSpan.&op_Subtraction
 0001:0004784C       System.SyncObjs..TSynchroObject
 0001:000479DC       System.SyncObjs..TCriticalSection
 0001:00047BF0       System.SyncObjs.TSynchroObject.Acquire
 0001:00047BFC       System.SyncObjs.TSynchroObject.Release
 0001:00047C00       System.SyncObjs.TSynchroObject.WaitFor
 0001:00047C04       System.SyncObjs.TSynchroObject.WaitFor
 0001:00047CBC       System.SyncObjs.TCriticalSection.Create
 0001:00047CFC       System.SyncObjs.TCriticalSection.Destroy
 0001:00047D2C       System.SyncObjs.TCriticalSection.Acquire
 0001:00047D38       System.SyncObjs.TCriticalSection.Release
 0001:00047D44       System.SyncObjs.TCriticalSection.TryEnter
 0001:00047D58       System.SyncObjs.TCriticalSection.Enter
 0001:00047D60       System.SyncObjs.TCriticalSection.Leave
 0001:00047D68       System.SyncObjs.InternalInitConditionVariable
 0001:00047D78       System.SyncObjs.InternalWakeConditionVariable
 0001:00047D88       System.SyncObjs.InternalWakeAllConditionVariable
 0001:00047D98       System.SyncObjs.InternalSleepConditionVariableCS
 0001:00047DB4       System.SyncObjs.TInternalConditionVariable.DequeueWaiter
 0001:00047E0C       System.SyncObjs.TInternalConditionVariable.DequeueWaiterNoLock
 0001:00047E28       System.SyncObjs.TInternalConditionVariable.LockQueue
 0001:00047EA0       System.SyncObjs.TInternalConditionVariable.QueueWaiter
 0001:00047F08       System.SyncObjs.TInternalConditionVariable.RemoveWaiter
 0001:00047F9C       System.SyncObjs.TInternalConditionVariable.SleepCriticalSection
 0001:00048094       System.SyncObjs.TInternalConditionVariable.UnlockQueue
 0001:0004809C       System.SyncObjs.TInternalConditionVariable.Wake
 0001:000480B0       System.SyncObjs.TInternalConditionVariable.WakeAll
 0001:00048124       System.SyncObjs.TInterlocked.Add
 0001:00048130       System.SyncObjs.InitConditionVariableProcs
 0001:0004829C       System.SyncObjs.Finalization
 0001:000482A4       System.Rtti.OnUnloadModule
 0001:000482F8       System.Rtti.Finalization
 0001:0004972C       ceflib..TCefBaseOwn
 0001:000498E8       ceflib..TCefBaseRef
 0001:00049AE8       ceflib..TCefRunFileDialogCallbackOwn
 0001:00049BD8       ceflib..TCefFastRunFileDialogCallback
 0001:00049FA8       ceflib..TCefBrowserHostRef
 0001:0004A1F0       ceflib..TCefBrowserRef
 0001:0004A478       ceflib..TCefFrameRef
 0001:0004A600       ceflib..TCefPostDataRef
 0001:0004A7DC       ceflib..TCefPostDataElementRef
 0001:0004AA34       ceflib..TCefRequestRef
 0001:0004AE40       ceflib..TCefv8ValueRef
 0001:0004B374       ceflib..TCefv8ContextRef
 0001:0004B53C       ceflib..TCefv8HandlerRef
 0001:0004B750       ceflib..TCefClientOwn
 0001:0004B90C       ceflib..TCefLifeSpanHandlerOwn
 0001:0004BAA4       ceflib..TCefLoadHandlerOwn
 0001:0004BC64       ceflib..TCefDisplayHandlerOwn
 0001:0004BDD4       ceflib..TCefCallbackRef
 0001:0004BF2C       ceflib..TCefCompletionCallbackOwn
 0001:0004C018       ceflib..TCefFastCompletionCallback
 0001:0004C204       ceflib..TCefResourceHandlerOwn
 0001:0004C3D4       ceflib..TCefSchemeHandlerFactoryOwn
 0001:0004C58C       ceflib..TCefTaskRunnerRef
 0001:0004C77C       ceflib..TCefDomVisitorOwn
 0001:0004C858       ceflib..TCefFastDomVisitor
 0001:0004CA78       ceflib..TCefDomDocumentRef
 0001:0004CCF0       ceflib..TCefDomNodeRef
 0001:0004CEAC       ceflib..TCefResponseRef
 0001:0004D04C       ceflib..TCefV8AccessorOwn
 0001:0004D12C       ceflib..TCefFastV8Accessor
 0001:0004D2E4       ceflib..TCefCookieVisitorOwn
 0001:0004D3C8       ceflib..TCefFastCookieVisitor
 0001:0004D5A8       ceflib..TCefV8ExceptionRef
 0001:0004D748       ceflib..TCefAppOwn
 0001:0004D894       ceflib..TCefSetCookieCallbackOwn
 0001:0004D980       ceflib..TCefFastSetCookieCallback
 0001:0004DB18       ceflib..TCefDeleteCookiesCallbackOwn
 0001:0004DC0C       ceflib..TCefFastDeleteCookiesCallback
 0001:0004DE44       ceflib..TCefCookieManagerRef
 0001:0004E158       ceflib..TCefProcessMessageRef
 0001:0004E2FC       ceflib..TCefStringVisitorOwn
 0001:0004E44C       ceflib..TCefFastStringVisitor
 0001:0004E6B8       ceflib..TCefCommandLineRef
 0001:0004E884       ceflib..TCefSchemeRegistrarRef
 0001:0004EB28       ceflib..TCefListValueRef
 0001:0004EDAC       ceflib..TCefValueRef
 0001:0004EF74       ceflib..TCefBinaryValueRef
 0001:0004F274       ceflib..TCefDictionaryValueRef
 0001:0004F478       ceflib..TCefRequestContextRef
 0001:0004F6CC       ceflib..TCefRequestContextHandlerRef
 0001:0004F898       ceflib..TCefNavigationEntryRef
 0001:0004F9FC       ceflib..TCefNavigationEntryVisitorOwn
 0001:0004FAEC       ceflib..TCefFastNavigationEntryVisitor
 0001:0004FC88       ceflib..TCefPdfPrintCallbackOwn
 0001:0004FD70       ceflib..TCefFastPdfPrintCallback
 0001:0004FE94       ceflib..ECefException
 0001:0004FF58       ceflib..TInternalApp
 0001:0005000C       ceflib.TInternalApp.OnBeforeCommandLineProcessing
 0001:00050024       ceflib.TInternalApp.OnRegisterCustomSchemes
 0001:00050038       ceflib.TInternalApp.GetResourceBundleHandler
 0001:0005004C       ceflib.TInternalApp.GetBrowserProcessHandler
 0001:00050060       ceflib.TInternalApp.GetRenderProcessHandler
 0001:00050074       ceflib.TzSpecificLocalTimeToSystemTime
 0001:0005007C       ceflib.SystemTimeToTzSpecificLocalTime
 0001:00050084       ceflib.cef_string_utf16_copy
 0001:000500A0       ceflib.CefLoadLibDefault
 0001:00050154       ceflib.CefLoadLib
 0001:000535B0       ceflib.CefRunMessageLoop
 0001:000535C0       ceflib.CefShutDown
 0001:000535EC       ceflib.CefString
 0001:00053618       ceflib.CefString
 0001:00053638       ceflib.CefStringAlloc
 0001:0005367C       ceflib.CefStringSet
 0001:000536B4       ceflib.CefStringClearAndGet
 0001:000536D0       ceflib.CefStringFreeAndGet
 0001:000536F8       ceflib.CefRegisterSchemeHandlerFactory
 0001:000537AC       ceflib.CefGetData
 0001:000537BC       ceflib.CefBrowserHostCreate
 0001:0005387C       ceflib.CefTimeToSystemTime
 0001:000538BC       ceflib.SystemTimeToCefTime
 0001:000538F4       ceflib.CefTimeToDateTime
 0001:0005392C       ceflib.DateTimeToCefTime
 0001:00053964       ceflib.cef_base_add_ref
 0001:0005397C       ceflib.cef_base_release
 0001:00053994       ceflib.cef_base_has_one_ref
 0001:000539B0       ceflib.cef_base_add_ref_owned
 0001:000539B8       ceflib.cef_base_release_owned
 0001:000539C4       ceflib.cef_base_has_one_ref_owned
 0001:000539D0       ceflib.cef_client_get_context_menu_handler
 0001:00053A34       ceflib.cef_client_get_dialog_handler
 0001:00053A98       ceflib.cef_client_get_display_handler
 0001:00053AFC       ceflib.cef_client_get_download_handler
 0001:00053B60       ceflib.cef_client_get_drag_handler
 0001:00053BC4       ceflib.cef_client_get_find_handler
 0001:00053C28       ceflib.cef_client_get_focus_handler
 0001:00053C8C       ceflib.cef_client_get_geolocation_handler
 0001:00053CF0       ceflib.cef_client_get_jsdialog_handler
 0001:00053D54       ceflib.cef_client_get_keyboard_handler
 0001:00053DB8       ceflib.cef_client_get_life_span_handler
 0001:00053E1C       ceflib.cef_client_get_load_handler
 0001:00053E80       ceflib.cef_client_get_get_render_handler
 0001:00053EE4       ceflib.cef_client_get_request_handler
 0001:00053F48       ceflib.cef_client_on_process_message_received
 0001:00053FCC       ceflib.cef_life_span_handler_on_before_popup
 0001:00054134       ceflib.cef_life_span_handler_on_after_created
 0001:00054190       ceflib.cef_life_span_handler_on_before_close
 0001:000541EC       ceflib.cef_life_span_handler_run_modal
 0001:00054250       ceflib.cef_life_span_handler_do_close
 0001:000542B4       ceflib.cef_load_handler_on_loading_state_change
 0001:00054328       ceflib.cef_load_handler_on_load_start
 0001:000543A4       ceflib.cef_load_handler_on_load_end
 0001:00054424       ceflib.cef_load_handler_on_load_error
 0001:000544D0       ceflib.cef_display_handler_on_address_change
 0001:00054564       ceflib.cef_display_handler_on_title_change
 0001:000545DC       ceflib.cef_display_handler_on_favicon_urlchange
 0001:000546D8       ceflib.cef_display_handler_on_fullscreen_mode_change
 0001:0005473C       ceflib.cef_display_handler_on_tooltip
 0001:000547E0       ceflib.cef_display_handler_on_status_message
 0001:00054858       ceflib.cef_display_handler_on_console_message
 0001:000548F4       ceflib.cef_dom_visitor_visite
 0001:00054950       ceflib.cef_v8_accessor_get
 0001:00054A20       ceflib.cef_v8_accessor_put
 0001:00054AD0       ceflib.cef_cookie_visitor_visit
 0001:00054BD8       ceflib.cef_app_on_before_command_line_processing
 0001:00054C50       ceflib.cef_app_on_register_custom_schemes
 0001:00054CAC       ceflib.cef_app_get_resource_bundle_handler
 0001:00054D0C       ceflib.cef_app_get_browser_process_handler
 0001:00054D6C       ceflib.cef_app_get_render_process_handler
 0001:00054DCC       ceflib.cef_string_visitor_visit
 0001:00054E20       ceflib.cef_scheme_handler_factory_create
 0001:00054EF4       ceflib.cef_resource_handler_process_request
 0001:00054F78       ceflib.cef_resource_handler_get_response_headers
 0001:00055004       ceflib.cef_resource_handler_read_response
 0001:00055074       ceflib.cef_resource_handler_can_get_cookie
 0001:00055094       ceflib.cef_resource_handler_can_set_cookie
 0001:000550B4       ceflib.cef_resource_handler_cancel
 0001:000550C8       ceflib.cef_run_file_dialog_callback_on_file_dialog_dismissed
 0001:000551A4       ceflib.cef_completion_callback_on_complete
 0001:000551B8       ceflib.cef_navigation_entry_visitor_visit
 0001:0005522C       ceflib.cef_set_cookie_callback_on_complete
 0001:00055248       ceflib.cef_delete_cookie_callback_on_complete
 0001:00055260       ceflib.cef_pdf_print_callback_on_pdf_print_finished
 0001:000552C0       ceflib.TCefBaseOwn.CreateData
 0001:00055354       ceflib.TCefBaseOwn.Destroy
 0001:00055384       ceflib.TCefBaseOwn.Wrap
 0001:00055398       ceflib.TCefBaseRef.Create
 0001:00055480       ceflib.TCefBaseRef.Destroy
 0001:000554B4       ceflib.TCefBaseRef.UnWrap
 0001:000554FC       ceflib.TCefBaseRef.Wrap
 0001:00055510       ceflib.TCefBrowserRef.GetHost
 0001:00055530       ceflib.TCefBrowserRef.CanGoBack
 0001:00055544       ceflib.TCefBrowserRef.CanGoForward
 0001:00055558       ceflib.TCefBrowserRef.GetFocusedFrame
 0001:00055578       ceflib.TCefBrowserRef.GetFrameByident
 0001:000555A4       ceflib.TCefBrowserRef.GetFrame
 0001:000555D8       ceflib.TCefBrowserRef.GetFrameCount
 0001:000555E0       ceflib.TCefBrowserRef.GetFrameIdentifiers
 0001:000555EC       ceflib.TCefBrowserRef.GetFrameNames
 0001:000556D0       ceflib.TCefBrowserRef.SendProcessMessage
 0001:0005575C       ceflib.TCefBrowserRef.GetMainFrame
 0001:0005577C       ceflib.TCefBrowserRef.GoBack
 0001:00055784       ceflib.TCefBrowserRef.GoForward
 0001:0005578C       ceflib.TCefBrowserRef.IsLoading
 0001:000557A0       ceflib.TCefBrowserRef.HasDocument
 0001:000557B4       ceflib.TCefBrowserRef.IsPopup
 0001:000557C8       ceflib.TCefBrowserRef.IsSame
 0001:00055834       ceflib.TCefBrowserRef.Reload
 0001:0005583C       ceflib.TCefBrowserRef.ReloadIgnoreCache
 0001:00055844       ceflib.TCefBrowserRef.StopLoad
 0001:0005584C       ceflib.TCefBrowserRef.GetIdentifier
 0001:00055854       ceflib.TCefBrowserRef.UnWrap
 0001:0005589C       ceflib.TCefFrameRef.IsValid
 0001:000558B0       ceflib.TCefFrameRef.Copy
 0001:000558B8       ceflib.TCefFrameRef.Cut
 0001:000558C0       ceflib.TCefFrameRef.Del
 0001:000558C8       ceflib.TCefFrameRef.ExecuteJavaScript
 0001:00055908       ceflib.TCefFrameRef.GetBrowser
 0001:00055928       ceflib.TCefFrameRef.GetIdentifier
 0001:00055944       ceflib.TCefFrameRef.GetName
 0001:00055960       ceflib.TCefFrameRef.GetParent
 0001:00055980       ceflib.TCefFrameRef.GetSource
 0001:000559E0       ceflib.TCefFrameRef.GetSourceProc
 0001:00055A08       ceflib.TCefFrameRef.GetText
 0001:00055A68       ceflib.TCefFrameRef.GetTextProc
 0001:00055A90       ceflib.TCefFrameRef.GetUrl
 0001:00055AAC       ceflib.TCefFrameRef.GetV8Context
 0001:00055ACC       ceflib.TCefFrameRef.IsFocused
 0001:00055AE0       ceflib.TCefFrameRef.IsMain
 0001:00055AF4       ceflib.TCefFrameRef.LoadRequest
 0001:00055B54       ceflib.TCefFrameRef.LoadString
 0001:00055B8C       ceflib.TCefFrameRef.LoadUrl
 0001:00055BAC       ceflib.TCefFrameRef.Paste
 0001:00055BB4       ceflib.TCefFrameRef.Redo
 0001:00055BBC       ceflib.TCefFrameRef.SelectAll
 0001:00055BC4       ceflib.TCefFrameRef.Undo
 0001:00055BCC       ceflib.TCefFrameRef.ViewSource
 0001:00055BD4       ceflib.TCefFrameRef.VisitDom
 0001:00055C34       ceflib.TCefFrameRef.VisitDomProc
 0001:00055CB0       ceflib.TCefFrameRef.UnWrap
 0001:00055CF8       ceflib.TCefPostDataRef.IsReadOnly
 0001:00055D0C       ceflib.TCefPostDataRef.AddElement
 0001:00055D70       ceflib.TCefPostDataRef.GetCount
 0001:00055D78       ceflib.TCefPostDataRef.GetElements
 0001:00055E64       ceflib.TCefPostDataRef.New
 0001:00055E80       ceflib.TCefPostDataRef.RemoveElement
 0001:00055EE4       ceflib.TCefPostDataRef.RemoveElements
 0001:00055EEC       ceflib.TCefPostDataRef.UnWrap
 0001:00055F34       ceflib.TCefPostDataElementRef.IsReadOnly
 0001:00055F48       ceflib.TCefPostDataElementRef.GetBytes
 0001:00055F54       ceflib.TCefPostDataElementRef.GetBytesCount
 0001:00055F5C       ceflib.TCefPostDataElementRef.GetFile
 0001:00055F78       ceflib.TCefPostDataElementRef.GetType
 0001:00055F88       ceflib.TCefPostDataElementRef.New
 0001:00055FA4       ceflib.TCefPostDataElementRef.SetToBytes
 0001:00055FB0       ceflib.TCefPostDataElementRef.SetToEmpty
 0001:00055FB8       ceflib.TCefPostDataElementRef.SetToFile
 0001:00055FD8       ceflib.TCefPostDataElementRef.UnWrap
 0001:00056020       ceflib.TCefRequestRef.IsReadOnly
 0001:00056034       ceflib.TCefRequestRef.Assign
 0001:000560C8       ceflib.TCefRequestRef.GetFirstPartyForCookies
 0001:000560E4       ceflib.TCefRequestRef.GetFlags
 0001:000560F8       ceflib.TCefRequestRef.GetHeaderMap
 0001:00056114       ceflib.TCefRequestRef.GetIdentifier
 0001:00056130       ceflib.TCefRequestRef.GetMethod
 0001:0005614C       ceflib.TCefRequestRef.GetPostData
 0001:0005616C       ceflib.TCefRequestRef.GetResourceType
 0001:0005617C       ceflib.TCefRequestRef.GetTransitionType
 0001:00056184       ceflib.TCefRequestRef.GetUrl
 0001:000561A0       ceflib.TCefRequestRef.New
 0001:000561BC       ceflib.TCefRequestRef.SetFirstPartyForCookies
 0001:000561DC       ceflib.TCefRequestRef.SetFlags
 0001:000561F0       ceflib.TCefRequestRef.SetHeaderMap
 0001:0005620C       ceflib.TCefRequestRef.SetMethod
 0001:0005622C       ceflib.TCefRequestRef.SetPostData
 0001:00056290       ceflib.TCefRequestRef.SetUrl
 0001:000562B0       ceflib.TCefRequestRef.UnWrap
 0001:000562F8       ceflib.TCefv8ValueRef.AdjustExternallyAllocatedMemory
 0001:00056304       ceflib.TCefv8ValueRef.NewArray
 0001:00056324       ceflib.TCefv8ValueRef.NewBool
 0001:00056348       ceflib.TCefv8ValueRef.NewDate
 0001:00056380       ceflib.TCefv8ValueRef.NewDouble
 0001:000563AC       ceflib.TCefv8ValueRef.NewFunction
 0001:00056438       ceflib.TCefv8ValueRef.NewInt
 0001:00056458       ceflib.TCefv8ValueRef.NewUInt
 0001:00056478       ceflib.TCefv8ValueRef.NewNull
 0001:00056494       ceflib.TCefv8ValueRef.NewObject
 0001:00056504       ceflib.TCefv8ValueRef.NewObjectProc
 0001:00056588       ceflib.TCefv8ValueRef.NewString
 0001:000565B8       ceflib.TCefv8ValueRef.NewUndefined
 0001:000565D4       ceflib.TCefv8ValueRef.DeleteValueByIndex
 0001:000565F0       ceflib.TCefv8ValueRef.DeleteValueByKey
 0001:00056618       ceflib.TCefv8ValueRef.ExecuteFunction
 0001:00056734       ceflib.TCefv8ValueRef.ExecuteFunctionWithContext
 0001:00056874       ceflib.TCefv8ValueRef.GetArrayLength
 0001:00056880       ceflib.TCefv8ValueRef.GetBoolValue
 0001:00056894       ceflib.TCefv8ValueRef.GetDateValue
 0001:000568C0       ceflib.TCefv8ValueRef.GetDoubleValue
 0001:000568D4       ceflib.TCefv8ValueRef.GetExternallyAllocatedMemory
 0001:000568E0       ceflib.TCefv8ValueRef.GetFunctionHandler
 0001:00056904       ceflib.TCefv8ValueRef.GetFunctionName
 0001:00056920       ceflib.TCefv8ValueRef.GetIntValue
 0001:00056928       ceflib.TCefv8ValueRef.GetUIntValue
 0001:00056930       ceflib.TCefv8ValueRef.GetKeys
 0001:00056A20       ceflib.TCefv8ValueRef.SetUserData
 0001:00056A90       ceflib.TCefv8ValueRef.GetStringValue
 0001:00056AAC       ceflib.TCefv8ValueRef.IsUserCreated
 0001:00056AC0       ceflib.TCefv8ValueRef.IsValid
 0001:00056AD4       ceflib.TCefv8ValueRef.HasException
 0001:00056AE8       ceflib.TCefv8ValueRef.GetException
 0001:00056B08       ceflib.TCefv8ValueRef.ClearException
 0001:00056B1C       ceflib.TCefv8ValueRef.WillRethrowExceptions
 0001:00056B30       ceflib.TCefv8ValueRef.SetRethrowExceptions
 0001:00056B4C       ceflib.TCefv8ValueRef.GetUserData
 0001:00056B70       ceflib.TCefv8ValueRef.GetValueByIndex
 0001:00056B98       ceflib.TCefv8ValueRef.GetValueByKey
 0001:00056BD0       ceflib.TCefv8ValueRef.HasValueByIndex
 0001:00056BE8       ceflib.TCefv8ValueRef.HasValueByKey
 0001:00056C10       ceflib.TCefv8ValueRef.IsArray
 0001:00056C24       ceflib.TCefv8ValueRef.IsBool
 0001:00056C38       ceflib.TCefv8ValueRef.IsDate
 0001:00056C4C       ceflib.TCefv8ValueRef.IsDouble
 0001:00056C60       ceflib.TCefv8ValueRef.IsFunction
 0001:00056C74       ceflib.TCefv8ValueRef.IsInt
 0001:00056C88       ceflib.TCefv8ValueRef.IsUInt
 0001:00056C9C       ceflib.TCefv8ValueRef.IsNull
 0001:00056CB0       ceflib.TCefv8ValueRef.IsObject
 0001:00056CC4       ceflib.TCefv8ValueRef.IsSame
 0001:00056D30       ceflib.TCefv8ValueRef.IsString
 0001:00056D44       ceflib.TCefv8ValueRef.IsUndefined
 0001:00056D58       ceflib.TCefv8ValueRef.SetValueByAccessor
 0001:00056D9C       ceflib.TCefv8ValueRef.SetValueByIndex
 0001:00056E1C       ceflib.TCefv8ValueRef.SetValueByKey
 0001:00056EAC       ceflib.TCefv8ValueRef.UnWrap
 0001:00056F2C       ceflib.TCefv8HandlerRef.Execute
 0001:000570A4       ceflib.TCefv8HandlerRef.UnWrap
 0001:000570EC       ceflib.TCefv8ContextRef.Current
 0001:00057108       ceflib.TCefv8ContextRef.Enter
 0001:0005711C       ceflib.TCefv8ContextRef.Entered
 0001:00057138       ceflib.TCefv8ContextRef.Exit
 0001:0005714C       ceflib.TCefv8ContextRef.GetBrowser
 0001:0005716C       ceflib.TCefv8ContextRef.GetFrame
 0001:0005718C       ceflib.TCefv8ContextRef.GetGlobal
 0001:000571AC       ceflib.TCefv8ContextRef.GetTaskRunner
 0001:000571CC       ceflib.TCefv8ContextRef.IsSame
 0001:00057238       ceflib.TCefv8ContextRef.IsValid
 0001:0005724C       ceflib.TCefv8ContextRef.Eval
 0001:00057304       ceflib.TCefv8ContextRef.UnWrap
 0001:0005734C       ceflib.TCefDomVisitorOwn.Create
 0001:00057394       ceflib.TCefDomVisitorOwn.visit
 0001:00057398       ceflib.TCefFastDomVisitor.Create
 0001:000573DC       ceflib.TCefFastDomVisitor.visit
 0001:000573E8       ceflib.TCefDomDocumentRef.GetBaseUrl
 0001:00057404       ceflib.TCefDomDocumentRef.GetBody
 0001:00057424       ceflib.TCefDomDocumentRef.GetCompleteUrl
 0001:00057450       ceflib.TCefDomDocumentRef.GetDocument
 0001:00057470       ceflib.TCefDomDocumentRef.GetElementById
 0001:000574A4       ceflib.TCefDomDocumentRef.GetFocusedNode
 0001:000574C4       ceflib.TCefDomDocumentRef.GetHead
 0001:000574E4       ceflib.TCefDomDocumentRef.GetSelectionAsMarkup
 0001:00057500       ceflib.TCefDomDocumentRef.GetSelectionAsText
 0001:0005751C       ceflib.TCefDomDocumentRef.GetSelectionEndOffset
 0001:00057524       ceflib.TCefDomDocumentRef.GetSelectionStartOffset
 0001:0005752C       ceflib.TCefDomDocumentRef.GetTitle
 0001:00057548       ceflib.TCefDomDocumentRef.GetType
 0001:00057558       ceflib.TCefDomDocumentRef.HasSelection
 0001:0005756C       ceflib.TCefDomDocumentRef.UnWrap
 0001:000575B4       ceflib.TCefDomNodeRef.GetAsMarkup
 0001:000575D0       ceflib.TCefDomNodeRef.GetDocument
 0001:000575F0       ceflib.TCefDomNodeRef.GetElementAttribute
 0001:0005761C       ceflib.TCefDomNodeRef.GetElementAttributes
 0001:00057638       ceflib.TCefDomNodeRef.GetElementInnerText
 0001:00057654       ceflib.TCefDomNodeRef.GetElementTagName
 0001:00057670       ceflib.TCefDomNodeRef.GetFirstChild
 0001:00057690       ceflib.TCefDomNodeRef.GetFormControlElementType
 0001:000576AC       ceflib.TCefDomNodeRef.GetLastChild
 0001:000576CC       ceflib.TCefDomNodeRef.GetName
 0001:000576E8       ceflib.TCefDomNodeRef.GetNextSibling
 0001:00057708       ceflib.TCefDomNodeRef.GetParent
 0001:00057728       ceflib.TCefDomNodeRef.GetPreviousSibling
 0001:00057748       ceflib.TCefDomNodeRef.GetType
 0001:00057758       ceflib.TCefDomNodeRef.GetValue
 0001:00057774       ceflib.TCefDomNodeRef.HasChildren
 0001:00057788       ceflib.TCefDomNodeRef.HasElementAttribute
 0001:000577B0       ceflib.TCefDomNodeRef.HasElementAttributes
 0001:000577C4       ceflib.TCefDomNodeRef.IsEditable
 0001:000577D8       ceflib.TCefDomNodeRef.IsElement
 0001:000577EC       ceflib.TCefDomNodeRef.IsFormControlElement
 0001:00057800       ceflib.TCefDomNodeRef.IsSame
 0001:0005786C       ceflib.TCefDomNodeRef.IsText
 0001:00057880       ceflib.TCefDomNodeRef.SetElementAttribute
 0001:000578C0       ceflib.TCefDomNodeRef.SetValue
 0001:000578E8       ceflib.TCefDomNodeRef.UnWrap
 0001:00057930       ceflib.TCefResponseRef.New
 0001:0005794C       ceflib.TCefResponseRef.GetHeader
 0001:00057978       ceflib.TCefResponseRef.GetHeaderMap
 0001:00057994       ceflib.TCefResponseRef.GetMimeType
 0001:000579B0       ceflib.TCefResponseRef.GetStatus
 0001:000579B8       ceflib.TCefResponseRef.GetStatusText
 0001:000579D4       ceflib.TCefResponseRef.IsReadOnly
 0001:000579E8       ceflib.TCefResponseRef.SetHeaderMap
 0001:00057A04       ceflib.TCefResponseRef.SetMimeType
 0001:00057A24       ceflib.TCefResponseRef.SetStatus
 0001:00057A30       ceflib.TCefResponseRef.SetStatusText
 0001:00057A50       ceflib.TCefResponseRef.UnWrap
 0001:00057A98       ceflib.TCefV8AccessorOwn.Create
 0001:00057AE8       ceflib.TCefV8AccessorOwn.Get
 0001:00057AFC       ceflib.TCefV8AccessorOwn.Put
 0001:00057B08       ceflib.TCefFastV8Accessor.Create
 0001:00057B54       ceflib.TCefFastV8Accessor.Get
 0001:00057B98       ceflib.TCefFastV8Accessor.Put
 0001:00057BBC       ceflib.TCefCookieVisitorOwn.Create
 0001:00057C04       ceflib.TCefCookieVisitorOwn.visit
 0001:00057C10       ceflib.TCefFastCookieVisitor.Create
 0001:00057C54       ceflib.TCefFastCookieVisitor.visit
 0001:00057CA0       ceflib.TCefClientOwn.Create
 0001:00057D48       ceflib.TCefClientOwn.GetContextMenuHandler
 0001:00057D54       ceflib.TCefClientOwn.GetDialogHandler
 0001:00057D60       ceflib.TCefClientOwn.GetDisplayHandler
 0001:00057D6C       ceflib.TCefClientOwn.GetDownloadHandler
 0001:00057D78       ceflib.TCefClientOwn.GetDragHandler
 0001:00057D84       ceflib.TCefClientOwn.GetFindHandler
 0001:00057D90       ceflib.TCefClientOwn.GetFocusHandler
 0001:00057D9C       ceflib.TCefClientOwn.GetGeolocationHandler
 0001:00057DA8       ceflib.TCefClientOwn.GetJsdialogHandler
 0001:00057DB4       ceflib.TCefClientOwn.GetKeyboardHandler
 0001:00057DC0       ceflib.TCefClientOwn.GetLifeSpanHandler
 0001:00057DCC       ceflib.TCefClientOwn.GetLoadHandler
 0001:00057DD8       ceflib.TCefClientOwn.GetRenderHandler
 0001:00057DE4       ceflib.TCefClientOwn.GetRequestHandler
 0001:00057DF0       ceflib.TCefClientOwn.OnProcessMessageReceived
 0001:00057DFC       ceflib.TCefLifeSpanHandlerOwn.Create
 0001:00057E60       ceflib.TCefLifeSpanHandlerOwn.OnAfterCreated
 0001:00057E64       ceflib.TCefLifeSpanHandlerOwn.OnBeforeClose
 0001:00057E68       ceflib.TCefLifeSpanHandlerOwn.OnBeforePopup
 0001:00057E74       ceflib.TCefLifeSpanHandlerOwn.DoClose
 0001:00057E78       ceflib.TCefLifeSpanHandlerOwn.RunModal
 0001:00057E7C       ceflib.TCefLoadHandlerOwn.Create
 0001:00057ED8       ceflib.TCefLoadHandlerOwn.OnLoadEnd
 0001:00057EE0       ceflib.TCefLoadHandlerOwn.OnLoadError
 0001:00057EE8       ceflib.TCefLoadHandlerOwn.OnLoadingStateChange
 0001:00057EF0       ceflib.TCefLoadHandlerOwn.OnLoadStart
 0001:00057EF4       ceflib.TCefDisplayHandlerOwn.Create
 0001:00057F64       ceflib.TCefDisplayHandlerOwn.OnAddressChange
 0001:00057F6C       ceflib.TCefDisplayHandlerOwn.OnConsoleMessage
 0001:00057F78       ceflib.TCefDisplayHandlerOwn.OnFaviconUrlChange
 0001:00057F7C       ceflib.TCefDisplayHandlerOwn.OnFullScreenModeChange
 0001:00057F80       ceflib.TCefDisplayHandlerOwn.OnStatusMessage
 0001:00057F84       ceflib.TCefDisplayHandlerOwn.OnTitleChange
 0001:00057F88       ceflib.TCefDisplayHandlerOwn.OnTooltip
 0001:00057F8C       ceflib.TCefV8ExceptionRef.GetEndColumn
 0001:00057F94       ceflib.TCefV8ExceptionRef.GetEndPosition
 0001:00057F9C       ceflib.TCefV8ExceptionRef.GetLineNumber
 0001:00057FA4       ceflib.TCefV8ExceptionRef.GetMessage
 0001:00057FC0       ceflib.TCefV8ExceptionRef.GetScriptResourceName
 0001:00057FDC       ceflib.TCefV8ExceptionRef.GetSourceLine
 0001:00057FF8       ceflib.TCefV8ExceptionRef.GetStartColumn
 0001:00058000       ceflib.TCefV8ExceptionRef.GetStartPosition
 0001:00058008       ceflib.TCefV8ExceptionRef.UnWrap
 0001:00058050       ceflib.TCefAppOwn.Create
 0001:000580B4       ceflib.TCefCookieManagerRef.New
 0001:00058144       ceflib.TCefCookieManagerRef.NewProc
 0001:00058180       ceflib.TCefCookieManagerRef.DeleteCookies
 0001:00058214       ceflib.TCefCookieManagerRef.DeleteCookiesProc
 0001:0005824C       ceflib.TCefCookieManagerRef.FlushStore
 0001:000582B8       ceflib.TCefCookieManagerRef.FlushStoreProc
 0001:000582E0       ceflib.TCefCookieManagerRef.Global
 0001:00058350       ceflib.TCefCookieManagerRef.GlobalProc
 0001:00058380       ceflib.TCefCookieManagerRef.SetCookie
 0001:00058570       ceflib.TCefCookieManagerRef.SetCookieProc
 0001:000585D4       ceflib.TCefCookieManagerRef.SetStoragePath
 0001:00058660       ceflib.TCefCookieManagerRef.SetStoragePathProc
 0001:00058698       ceflib.TCefCookieManagerRef.SetSupportedSchemes
 0001:00058794       ceflib.TCefCookieManagerRef.SetSupportedSchemesProc
 0001:000587C4       ceflib.TCefCookieManagerRef.UnWrap
 0001:0005880C       ceflib.TCefCookieManagerRef.VisitAllCookies
 0001:00058878       ceflib.TCefCookieManagerRef.VisitAllCookiesProc
 0001:000588F8       ceflib.TCefCookieManagerRef.VisitUrlCookies
 0001:00058984       ceflib.TCefCookieManagerRef.VisitUrlCookiesProc
 0001:00058A10       ceflib.TCefBrowserHostRef.CloseDevTools
 0001:00058A18       ceflib.TCefBrowserHostRef.DragSourceEndedAt
 0001:00058A34       ceflib.TCefBrowserHostRef.DragSourceSystemDragEnded
 0001:00058A40       ceflib.TCefBrowserHostRef.DragTargetDragEnter
 0001:00058AB0       ceflib.TCefBrowserHostRef.DragTargetDragLeave
 0001:00058ABC       ceflib.TCefBrowserHostRef.DragTargetDragOver
 0001:00058AD4       ceflib.TCefBrowserHostRef.DragTargetDrop
 0001:00058AE0       ceflib.TCefBrowserHostRef.Find
 0001:00058B20       ceflib.TCefBrowserHostRef.GetBrowser
 0001:00058B40       ceflib.TCefBrowserHostRef.Print
 0001:00058B48       ceflib.TCefBrowserHostRef.PrintToPdf
 0001:00058BC8       ceflib.TCefBrowserHostRef.PrintToPdfProc
 0001:00058C00       ceflib.TCefBrowserHostRef.ReplaceMisspelling
 0001:00058C20       ceflib.TCefBrowserHostRef.RunFileDialog
 0001:00058D3C       ceflib.TCefBrowserHostRef.RunFileDialogProc
 0001:00058D80       ceflib.TCefBrowserHostRef.AddWordToDictionary
 0001:00058DA0       ceflib.TCefBrowserHostRef.CloseBrowser
 0001:00058DAC       ceflib.TCefBrowserHostRef.SendCaptureLostEvent
 0001:00058DB8       ceflib.TCefBrowserHostRef.SendFocusEvent
 0001:00058DC8       ceflib.TCefBrowserHostRef.SendKeyEvent
 0001:00058DD4       ceflib.TCefBrowserHostRef.SendMouseClickEvent
 0001:00058DF4       ceflib.TCefBrowserHostRef.SendMouseMoveEvent
 0001:00058E08       ceflib.TCefBrowserHostRef.SendMouseWheelEvent
 0001:00058E24       ceflib.TCefBrowserHostRef.SetFocus
 0001:00058E30       ceflib.TCefBrowserHostRef.SetMouseCursorChangeDisabled
 0001:00058E3C       ceflib.TCefBrowserHostRef.SetWindowlessFrameRate
 0001:00058E48       ceflib.TCefBrowserHostRef.SetWindowVisibility
 0001:00058E54       ceflib.TCefBrowserHostRef.GetWindowHandle
 0001:00058E5C       ceflib.TCefBrowserHostRef.GetWindowlessFrameRate
 0001:00058E68       ceflib.TCefBrowserHostRef.GetOpenerWindowHandle
 0001:00058E70       ceflib.TCefBrowserHostRef.GetRequestContext
 0001:00058E90       ceflib.TCefBrowserHostRef.GetNavigationEntries
 0001:00058EF8       ceflib.TCefBrowserHostRef.GetNavigationEntriesProc
 0001:00058F28       ceflib.TCefBrowserHostRef.GetNsTextInputContext
 0001:00058F34       ceflib.TCefBrowserHostRef.GetZoomLevel
 0001:00058F48       ceflib.TCefBrowserHostRef.HandleKeyEventAfterTextInputClient
 0001:00058F54       ceflib.TCefBrowserHostRef.HandleKeyEventBeforeTextInputClient
 0001:00058F60       ceflib.TCefBrowserHostRef.Invalidate
 0001:00058F6C       ceflib.TCefBrowserHostRef.IsMouseCursorChangeDisabled
 0001:00058F80       ceflib.TCefBrowserHostRef.IsWindowRenderingDisabled
 0001:00058F94       ceflib.TCefBrowserHostRef.NotifyMoveOrResizeStarted
 0001:00058FA0       ceflib.TCefBrowserHostRef.NotifyScreenInfoChanged
 0001:00058FA8       ceflib.TCefBrowserHostRef.SetZoomLevel
 0001:00058FBC       ceflib.TCefBrowserHostRef.ShowDevTools
 0001:0005902C       ceflib.TCefBrowserHostRef.StartDownload
 0001:0005904C       ceflib.TCefBrowserHostRef.StopFinding
 0001:00059058       ceflib.TCefBrowserHostRef.UnWrap
 0001:000590A0       ceflib.TCefBrowserHostRef.WasHidden
 0001:000590AC       ceflib.TCefBrowserHostRef.WasResized
 0001:000590B4       ceflib.TCefProcessMessageRef.Copy
 0001:000590D4       ceflib.TCefProcessMessageRef.GetArgumentList
 0001:000590F4       ceflib.TCefProcessMessageRef.GetName
 0001:00059110       ceflib.TCefProcessMessageRef.IsReadOnly
 0001:00059124       ceflib.TCefProcessMessageRef.IsValid
 0001:00059138       ceflib.TCefProcessMessageRef.New
 0001:00059168       ceflib.TCefProcessMessageRef.UnWrap
 0001:000591B0       ceflib.TCefStringVisitorOwn.Create
 0001:000591F8       ceflib.TCefStringVisitorOwn.Visit
 0001:000591FC       ceflib.TCefFastStringVisitor.Create
 0001:00059240       ceflib.TCefFastStringVisitor.Visit
 0001:0005924C       ceflib.TCefCommandLineRef.AppendArgument
 0001:0005926C       ceflib.TCefCommandLineRef.AppendSwitch
 0001:0005928C       ceflib.TCefCommandLineRef.AppendSwitchWithValue
 0001:000592C4       ceflib.TCefCommandLineRef.Copy
 0001:000592E4       ceflib.TCefCommandLineRef.GetArguments
 0001:000593BC       ceflib.TCefCommandLineRef.GetArgv
 0001:00059494       ceflib.TCefCommandLineRef.GetCommandLineString
 0001:000594B0       ceflib.TCefCommandLineRef.GetProgram
 0001:000594CC       ceflib.TCefCommandLineRef.GetSwitches
 0001:000595A4       ceflib.TCefCommandLineRef.GetSwitchValue
 0001:000595D0       ceflib.TCefCommandLineRef.Global
 0001:000595EC       ceflib.TCefCommandLineRef.HasArguments
 0001:00059600       ceflib.TCefCommandLineRef.HasSwitch
 0001:00059628       ceflib.TCefCommandLineRef.HasSwitches
 0001:0005963C       ceflib.TCefCommandLineRef.InitFromArgv
 0001:00059648       ceflib.TCefCommandLineRef.InitFromString
 0001:00059668       ceflib.TCefCommandLineRef.IsReadOnly
 0001:0005967C       ceflib.TCefCommandLineRef.IsValid
 0001:00059690       ceflib.TCefCommandLineRef.New
 0001:000596AC       ceflib.TCefCommandLineRef.PrependWrapper
 0001:000596CC       ceflib.TCefCommandLineRef.Reset
 0001:000596D4       ceflib.TCefCommandLineRef.SetProgram
 0001:000596F4       ceflib.TCefCommandLineRef.UnWrap
 0001:0005973C       ceflib.TCefSchemeRegistrarRef.AddCustomScheme
 0001:0005977C       ceflib.TCefSchemeRegistrarRef.UnWrap
 0001:000597C4       ceflib.TCefListValueRef.Clear
 0001:000597D8       ceflib.TCefListValueRef.Copy
 0001:000597F8       ceflib.TCefListValueRef.New
 0001:00059814       ceflib.TCefListValueRef.GetBinary
 0001:0005983C       ceflib.TCefListValueRef.GetBool
 0001:00059854       ceflib.TCefListValueRef.GetDictionary
 0001:0005987C       ceflib.TCefListValueRef.GetDouble
 0001:00059894       ceflib.TCefListValueRef.GetInt
 0001:000598A0       ceflib.TCefListValueRef.GetList
 0001:000598C4       ceflib.TCefListValueRef.GetSize
 0001:000598CC       ceflib.TCefListValueRef.GetString
 0001:000598EC       ceflib.TCefListValueRef.GetType
 0001:00059900       ceflib.TCefListValueRef.GetValue
 0001:00059928       ceflib.TCefListValueRef.IsEqual
 0001:00059994       ceflib.TCefListValueRef.IsOwned
 0001:000599A8       ceflib.TCefListValueRef.IsReadOnly
 0001:000599BC       ceflib.TCefListValueRef.IsSame
 0001:00059A28       ceflib.TCefListValueRef.IsValid
 0001:00059A3C       ceflib.TCefListValueRef.Remove
 0001:00059A54       ceflib.TCefListValueRef.SetBinary
 0001:00059AD0       ceflib.TCefListValueRef.SetBool
 0001:00059AF0       ceflib.TCefListValueRef.SetDictionary
 0001:00059B6C       ceflib.TCefListValueRef.SetDouble
 0001:00059B90       ceflib.TCefListValueRef.SetInt
 0001:00059BB0       ceflib.TCefListValueRef.SetList
 0001:00059C2C       ceflib.TCefListValueRef.SetNull
 0001:00059C44       ceflib.TCefListValueRef.SetSize
 0001:00059C5C       ceflib.TCefListValueRef.SetString
 0001:00059C88       ceflib.TCefListValueRef.SetValue
 0001:00059D04       ceflib.TCefListValueRef.UnWrap
 0001:00059D4C       ceflib.TCefBinaryValueRef.Copy
 0001:00059D6C       ceflib.TCefBinaryValueRef.GetData
 0001:00059D84       ceflib.TCefBinaryValueRef.GetSize
 0001:00059D8C       ceflib.TCefBinaryValueRef.IsEqual
 0001:00059DF8       ceflib.TCefBinaryValueRef.IsOwned
 0001:00059E0C       ceflib.TCefBinaryValueRef.IsSame
 0001:00059E78       ceflib.TCefBinaryValueRef.IsValid
 0001:00059E8C       ceflib.TCefBinaryValueRef.New
 0001:00059EB8       ceflib.TCefBinaryValueRef.UnWrap
 0001:00059F00       ceflib.TCefDictionaryValueRef.Clear
 0001:00059F14       ceflib.TCefDictionaryValueRef.Copy
 0001:00059F3C       ceflib.TCefDictionaryValueRef.GetBinary
 0001:00059F70       ceflib.TCefDictionaryValueRef.GetBool
 0001:00059F98       ceflib.TCefDictionaryValueRef.GetDictionary
 0001:00059FC8       ceflib.TCefDictionaryValueRef.GetDouble
 0001:00059FF8       ceflib.TCefDictionaryValueRef.GetInt
 0001:0005A018       ceflib.TCefDictionaryValueRef.GetKeys
 0001:0005A108       ceflib.TCefDictionaryValueRef.GetList
 0001:0005A13C       ceflib.TCefDictionaryValueRef.GetSize
 0001:0005A144       ceflib.TCefDictionaryValueRef.GetString
 0001:0005A170       ceflib.TCefDictionaryValueRef.GetType
 0001:0005A190       ceflib.TCefDictionaryValueRef.GetValue
 0001:0005A1C4       ceflib.TCefDictionaryValueRef.HasKey
 0001:0005A1EC       ceflib.TCefDictionaryValueRef.IsEqual
 0001:0005A258       ceflib.TCefDictionaryValueRef.isOwned
 0001:0005A26C       ceflib.TCefDictionaryValueRef.IsReadOnly
 0001:0005A280       ceflib.TCefDictionaryValueRef.IsSame
 0001:0005A2EC       ceflib.TCefDictionaryValueRef.IsValid
 0001:0005A300       ceflib.TCefDictionaryValueRef.New
 0001:0005A31C       ceflib.TCefDictionaryValueRef.Remove
 0001:0005A344       ceflib.TCefDictionaryValueRef.SetBinary
 0001:0005A3C8       ceflib.TCefDictionaryValueRef.SetBool
 0001:0005A3FC       ceflib.TCefDictionaryValueRef.SetDictionary
 0001:0005A480       ceflib.TCefDictionaryValueRef.SetDouble
 0001:0005A4B4       ceflib.TCefDictionaryValueRef.SetInt
 0001:0005A4E4       ceflib.TCefDictionaryValueRef.SetList
 0001:0005A56C       ceflib.TCefDictionaryValueRef.SetNull
 0001:0005A594       ceflib.TCefDictionaryValueRef.SetString
 0001:0005A5D4       ceflib.TCefDictionaryValueRef.SetValue
 0001:0005A658       ceflib.TCefDictionaryValueRef.UnWrap
 0001:0005A6A0       ceflib.TCefResourceHandlerOwn.Cancel
 0001:0005A6A4       ceflib.TCefResourceHandlerOwn.CanGetCookie
 0001:0005A6A8       ceflib.TCefResourceHandlerOwn.CanSetCookie
 0001:0005A6AC       ceflib.TCefResourceHandlerOwn.Create
 0001:0005A71C       ceflib.TCefResourceHandlerOwn.GetResponseHeaders
 0001:0005A730       ceflib.TCefResourceHandlerOwn.ProcessRequest
 0001:0005A734       ceflib.TCefResourceHandlerOwn.ReadResponse
 0001:0005A740       ceflib.TCefSchemeHandlerFactoryOwn.Create
 0001:0005A794       ceflib.TCefSchemeHandlerFactoryOwn.New
 0001:0005A7CC       ceflib.TCefCallbackRef.Cancel
 0001:0005A7D4       ceflib.TCefCallbackRef.Cont
 0001:0005A7DC       ceflib.TCefCallbackRef.UnWrap
 0001:0005A824       ceflib.TCefRunFileDialogCallbackOwn.Create
 0001:0005A86C       ceflib.TCefRunFileDialogCallbackOwn.OnFileDialogDismissed
 0001:0005A870       ceflib.TCefFastRunFileDialogCallback.OnFileDialogDismissed
 0001:0005A87C       ceflib.TCefFastRunFileDialogCallback.Create
 0001:0005A8F8       ceflib.TCefTaskRunnerRef.BelongsToCurrentThread
 0001:0005A90C       ceflib.TCefTaskRunnerRef.BelongsToThread
 0001:0005A924       ceflib.TCefTaskRunnerRef.GetForCurrentThread
 0001:0005A940       ceflib.TCefTaskRunnerRef.GetForThread
 0001:0005A960       ceflib.TCefTaskRunnerRef.IsSame
 0001:0005A9CC       ceflib.TCefTaskRunnerRef.PostDelayedTask
 0001:0005AA40       ceflib.TCefTaskRunnerRef.PostTask
 0001:0005AAB0       ceflib.TCefTaskRunnerRef.UnWrap
 0001:0005AAF8       ceflib.TCefCompletionCallbackOwn.Create
 0001:0005AB40       ceflib.TCefCompletionCallbackOwn.OnComplete
 0001:0005AB44       ceflib.TCefFastCompletionCallback.Create
 0001:0005AB88       ceflib.TCefFastCompletionCallback.OnComplete
 0001:0005AB94       ceflib.TCefRequestContextRef.ClearSchemeHandlerFactories
 0001:0005ABA8       ceflib.TCefRequestContextRef.GetCachePath
 0001:0005ABC4       ceflib.TCefRequestContextRef.GetDefaultCookieManager
 0001:0005AC40       ceflib.TCefRequestContextRef.GetDefaultCookieManagerProc
 0001:0005AC70       ceflib.TCefRequestContextRef.GetHandler
 0001:0005AC90       ceflib.TCefRequestContextRef.Global
 0001:0005ACAC       ceflib.TCefRequestContextRef.IsGlobal
 0001:0005ACC0       ceflib.TCefRequestContextRef.IsSame
 0001:0005AD2C       ceflib.TCefRequestContextRef.IsSharingWith
 0001:0005AD98       ceflib.TCefRequestContextRef.New
 0001:0005AE10       ceflib.TCefRequestContextRef.PurgePluginListCache
 0001:0005AE1C       ceflib.TCefRequestContextRef.RegisterSchemeHandlerFactory
 0001:0005AEB0       ceflib.TCefRequestContextRef.Shared
 0001:0005AF54       ceflib.TCefRequestContextRef.UnWrap
 0001:0005AF9C       ceflib.TCefRequestContextHandlerRef.GetCookieManager
 0001:0005AFBC       ceflib.TCefRequestContextHandlerRef.OnBeforePluginLoad
 0001:0005B064       ceflib.TCefRequestContextHandlerRef.UnWrap
 0001:0005B0AC       ceflib.TCefNavigationEntryRef.IsValid
 0001:0005B0C0       ceflib.TCefNavigationEntryRef.GetUrl
 0001:0005B0DC       ceflib.TCefNavigationEntryRef.GetDisplayUrl
 0001:0005B0F8       ceflib.TCefNavigationEntryRef.GetOriginalUrl
 0001:0005B114       ceflib.TCefNavigationEntryRef.GetTitle
 0001:0005B130       ceflib.TCefNavigationEntryRef.GetTransitionType
 0001:0005B138       ceflib.TCefNavigationEntryRef.HasPostData
 0001:0005B14C       ceflib.TCefNavigationEntryRef.GetCompletionTime
 0001:0005B178       ceflib.TCefNavigationEntryRef.GetHttpStatusCode
 0001:0005B180       ceflib.TCefNavigationEntryRef.UnWrap
 0001:0005B1C8       ceflib.TCefNavigationEntryVisitorOwn.Create
 0001:0005B218       ceflib.TCefNavigationEntryVisitorOwn.Visit
 0001:0005B224       ceflib.TCefFastNavigationEntryVisitor.Create
 0001:0005B268       ceflib.TCefFastNavigationEntryVisitor.Visit
 0001:0005B284       ceflib.TCefSetCookieCallbackOwn.Create
 0001:0005B2CC       ceflib.TCefFastSetCookieCallback.Create
 0001:0005B310       ceflib.TCefFastSetCookieCallback.OnComplete
 0001:0005B31C       ceflib.TCefDeleteCookiesCallbackOwn.Create
 0001:0005B364       ceflib.TCefFastDeleteCookiesCallback.Create
 0001:0005B3A8       ceflib.TCefFastDeleteCookiesCallback.OnComplete
 0001:0005B3B4       ceflib.TCefValueRef.Copy
 0001:0005B3D4       ceflib.TCefValueRef.GetBinary
 0001:0005B3F4       ceflib.TCefValueRef.GetBool
 0001:0005B408       ceflib.TCefValueRef.GetDictionary
 0001:0005B428       ceflib.TCefValueRef.GetDouble
 0001:0005B43C       ceflib.TCefValueRef.GetInt
 0001:0005B444       ceflib.TCefValueRef.GetList
 0001:0005B464       ceflib.TCefValueRef.GetString
 0001:0005B480       ceflib.TCefValueRef.GetType
 0001:0005B490       ceflib.TCefValueRef.IsEqual
 0001:0005B4FC       ceflib.TCefValueRef.IsOwned
 0001:0005B510       ceflib.TCefValueRef.IsReadOnly
 0001:0005B524       ceflib.TCefValueRef.IsSame
 0001:0005B590       ceflib.TCefValueRef.IsValid
 0001:0005B5A4       ceflib.TCefValueRef.New
 0001:0005B5C0       ceflib.TCefValueRef.SetBinary
 0001:0005B62C       ceflib.TCefValueRef.SetBool
 0001:0005B644       ceflib.TCefValueRef.SetDictionary
 0001:0005B6B0       ceflib.TCefValueRef.SetDouble
 0001:0005B6D0       ceflib.TCefValueRef.SetInt
 0001:0005B6E8       ceflib.TCefValueRef.SetList
 0001:0005B754       ceflib.TCefValueRef.SetNull
 0001:0005B768       ceflib.TCefValueRef.SetString
 0001:0005B790       ceflib.TCefValueRef.UnWrap
 0001:0005B7D8       ceflib.TCefPdfPrintCallbackOwn.Create
 0001:0005B828       ceflib.TCefFastPdfPrintCallback.Create
 0001:0005B86C       ceflib.TCefFastPdfPrintCallback.OnPdfPrintFinished
 0001:0005B878       ceflib.Finalization
 0001:0005B9CC       System.IOUtils.TPath.Destroy@
 0001:0005B9D4       System.IOUtils.Finalization
 0001:0005BA9C       System.IniFiles.Finalization
 0001:0005BAEC       System.Win.Registry.TRegistry.Destroy@
 0001:0005BAF4       System.Win.Registry..ERegistryException
 0001:0005BD10       System.Win.Registry..TRegistry
 0001:0005CCDC       System.Win.Registry.ReadError
 0001:0005CD08       System.Win.Registry.IsRelative
 0001:0005CD20       System.Win.Registry.RegDataToDataType
 0001:0005CD50       System.Win.Registry.DataTypeToRegData
 0001:0005CD78       System.Win.Registry.BinaryToHexString
 0001:0005CE5C       System.Win.Registry.TRegistry.Create
 0001:0005CEA0       System.Win.Registry.TRegistry.Create
 0001:0005CEDC       System.Win.Registry.TRegistry.Destroy
 0001:0005CF08       System.Win.Registry.TRegistry.CheckResult
 0001:0005CF14       System.Win.Registry.TRegistry.CloseKey
 0001:0005CF44       System.Win.Registry.TRegistry.SetRootKey
 0001:0005CF70       System.Win.Registry.TRegistry.ChangeKey
 0001:0005CF94       System.Win.Registry.TRegistry.GetBaseKey
 0001:0005CFA8       System.Win.Registry.TRegistry.SetCurrentKey
 0001:0005CFAC       System.Win.Registry.TRegistry.CreateKey
 0001:0005D09C       System.Win.Registry.TRegistry.OpenKey
 0001:0005D1D0       System.Win.Registry.TRegistry.OpenKeyReadOnly
 0001:0005D3B8       System.Win.Registry.TRegistry.DeleteKey
 0001:0005D584       System.Win.Registry.TRegistry.DeleteValue
 0001:0005D5A8       System.Win.Registry.TRegistry.GetKeyInfo
 0001:0005D614       System.Win.Registry.TRegistry.GetKeyNames
 0001:0005D6DC       System.Win.Registry.TRegistry.GetLastErrorMsg
 0001:0005D84C       System.Win.Registry.TRegistry.GetRootKeyName
 0001:0005D884       System.Win.Registry.TRegistry.GetValueNames
 0001:0005D94C       System.Win.Registry.TRegistry.GetDataInfo
 0001:0005D9A0       System.Win.Registry.TRegistry.GetDataSize
 0001:0005D9C8       System.Win.Registry.TRegistry.GetDataType
 0001:0005D9F0       System.Win.Registry.TRegistry.WriteString
 0001:0005DA24       System.Win.Registry.TRegistry.WriteExpandString
 0001:0005DA58       System.Win.Registry.TRegistry.ReadString
 0001:0005DB14       System.Win.Registry.TRegistry.GetDataAsString
 0001:0005DCC8       System.Win.Registry.TRegistry.WriteInteger
 0001:0005DCDC       System.Win.Registry.TRegistry.ReadInteger
 0001:0005DD0C       System.Win.Registry.TRegistry.WriteBool
 0001:0005DD18       System.Win.Registry.TRegistry.ReadBool
 0001:0005DD30       System.Win.Registry.TRegistry.WriteFloat
 0001:0005DD44       System.Win.Registry.TRegistry.ReadFloat
 0001:0005DD78       System.Win.Registry.TRegistry.WriteCurrency
 0001:0005DD8C       System.Win.Registry.TRegistry.ReadCurrency
 0001:0005DDC0       System.Win.Registry.TRegistry.WriteDateTime
 0001:0005DDD4       System.Win.Registry.TRegistry.ReadDateTime
 0001:0005DE08       System.Win.Registry.TRegistry.WriteDate
 0001:0005DE1C       System.Win.Registry.TRegistry.ReadDate
 0001:0005DE30       System.Win.Registry.TRegistry.WriteTime
 0001:0005DE44       System.Win.Registry.TRegistry.ReadTime
 0001:0005DE58       System.Win.Registry.TRegistry.WriteBinaryData
 0001:0005DE6C       System.Win.Registry.TRegistry.ReadBinaryData
 0001:0005DED0       System.Win.Registry.TRegistry.PutData
 0001:0005DF44       System.Win.Registry.TRegistry.GetData
 0001:0005DFC0       System.Win.Registry.TRegistry.HasSubKeys
 0001:0005DFE4       System.Win.Registry.TRegistry.ValueExists
 0001:0005DFF4       System.Win.Registry.TRegistry.GetKey
 0001:0005E08C       System.Win.Registry.TRegistry.RegistryConnect
 0001:0005E0C8       System.Win.Registry.TRegistry.LoadKey
 0001:0005E158       System.Win.Registry.TRegistry.UnLoadKey
 0001:0005E1DC       System.Win.Registry.TRegistry.RestoreKey
 0001:0005E254       System.Win.Registry.TRegistry.ReplaceKey
 0001:0005E2F8       System.Win.Registry.TRegistry.SaveKey
 0001:0005E370       System.Win.Registry.TRegistry.KeyExists
 0001:0005E3E8       System.Win.Registry.TRegistry.RenameValue
 0001:0005E484       System.Win.Registry.MoveValue
 0001:0005E5A4       System.Win.Registry.CopyValues
 0001:0005E6DC       System.Win.Registry.CopyKeys
 0001:0005E938       System.Win.Registry.TRegistry.MoveKey
 0001:0005EA4C       System.Win.Registry.Finalization
 0001:0005EAA8       System.Contnrs..TObjectList
 0001:0005EFB8       System.Contnrs.TObjectList.Add
 0001:0005EFC0       System.Contnrs.TObjectList.Create
 0001:0005EFFC       System.Contnrs.TObjectList.Create
 0001:0005F040       System.Contnrs.TObjectList.Extract
 0001:0005F048       System.Contnrs.TObjectList.ExtractItem
 0001:0005F060       System.Contnrs.TObjectList.FindInstanceOf
 0001:0005F0E8       System.Contnrs.TObjectList.First
 0001:0005F0F0       System.Contnrs.TObjectList.GetItem
 0001:0005F104       System.Contnrs.TObjectList.IndexOf
 0001:0005F10C       System.Contnrs.TObjectList.IndexOfItem
 0001:0005F114       System.Contnrs.TObjectList.Insert
 0001:0005F11C       System.Contnrs.TObjectList.Last
 0001:0005F128       System.Contnrs.TObjectList.Notify
 0001:0005F154       System.Contnrs.TObjectList.Remove
 0001:0005F15C       System.Contnrs.TObjectList.RemoveItem
 0001:0005F164       System.Contnrs.TObjectList.SetItem
 0001:0005F16C       ceffilescheme..TFileScheme
 0001:0005F360       ceffilescheme.Escape
 0001:0005F458       ceffilescheme..TFileInfo
 0001:0005F66C       ceffilescheme.TFileInfo.Create
 0001:0005F6D8       ceffilescheme.TFileInfo.DisplaySize
 0001:0005F978       ceffilescheme.TFileInfo.DisplayDate
 0001:0005FA2C       ceffilescheme.TFileInfo.Display
 0001:0005FB60       ceffilescheme.FileSortCompare
 0001:0005FBA8       ceffilescheme.HTTPDecode
 0001:0005FCE0       ceffilescheme.ParseFileUrl
 0001:0005FE30       ceffilescheme.TFileScheme.Create
 0001:0005FE7C       ceffilescheme.TFileScheme.Destroy
 0001:0005FEAC       ceffilescheme.TFileScheme.GetResponseHeaders
 0001:0005FEF4       ceffilescheme.OutPut
 0001:0005FF60       ceffilescheme.OutputUTF8
 0001:0005FFCC       ceffilescheme.TFileScheme.ProcessRequest
 0001:000607E0       ceffilescheme.TFileScheme.ReadResponse
 0001:00060814       cefclient..TCustomClient
 0001:00060988       cefclient..TCustomLifeSpan
 0001:00060A48       cefclient..TCustomLoad
 0001:00060AFC       cefclient..TCustomDisplay
 0001:00060BF8       cefclient.CefWndProc
 0001:00061238       cefclient.TCustomClient.Create
 0001:000612C4       cefclient.TCustomClient.GetDisplayHandler
 0001:000612D8       cefclient.TCustomClient.GetLifeSpanHandler
 0001:000612EC       cefclient.TCustomClient.GetLoadHandler
 0001:00061300       cefclient.TCustomLifeSpan.DoClose
 0001:0006132C       cefclient.TCustomLifeSpan.OnAfterCreated
 0001:00061358       cefclient.TCustomLifeSpan.OnBeforeClose
 0001:00061378       cefclient.TCustomLifeSpan.OnBeforePopup
 0001:00061408       cefclient.TCustomLoad.OnLoadEnd
 0001:0006142C       cefclient.TCustomLoad.OnLoadStart
 0001:00061460       cefclient.TCustomDisplay.OnAddressChange
 0001:000614A0       cefclient.TCustomDisplay.OnTitleChange
 0001:000614CC       cefclient.RegisterSchemes
 0001:000614F8       cefclient.Finalization
 0001:0006491C       cefclient..cefclient$2859$ActRec
 0001:000649C8       cefclient.cefclient$2859$ActRec.$0$Body
 0002:00000000       System.System
 0002:000000B4       SysInit.SysInit
 0002:000000BC       Winapi.Windows.Winapi.Windows
 0002:000000D4       System.Internal.ExcUtils.System.Internal.ExcUtils
 0002:000000F4       System.SysUtils.TLanguages.Create@
 0002:000000FC       System.SysUtils.TEncoding.Create@
 0002:00000104       System.SysUtils.Exception.Create@
 0002:00000114       System.SysUtils.TOSVersion.Create@
 0002:000002E0       System.SysUtils.System.SysUtils
 0002:00000384       System.VarUtils.System.VarUtils
 0002:00000394       System.Variants.System.Variants
 0002:0000044C       System.TypInfo.System.TypInfo
 0002:00000454       System.Classes.System.Classes
 0002:000004E4       System.Math.System.Math
 0002:000004F4       System.TimeSpan.TTimeSpan.Create@
 0002:00000528       System.SyncObjs.System.SyncObjs
 0002:00000538       System.Rtti.System.Rtti
 0002:00000584       ceflib.ceflib
 0002:00000598       System.IOUtils.TPath.Create@
 0002:000009F0       System.IOUtils.System.IOUtils
 0002:000009F8       System.IniFiles.System.IniFiles
 0002:00000A00       System.Win.Registry.TRegistry.Create@
 0002:00000A98       System.Win.Registry.System.Win.Registry
 0002:00000AA0       cefclient.cefclient
 0003:00000000       System.ExitCode
 0003:00000004       System.ErrorAddr
 0003:00000008       System.RandSeed
 0003:0000000C       System.FileMode
 0003:00000010       System.VarClearProc
 0003:00000014       System.VarAddRefProc
 0003:00000018       System.VarCopyProc
 0003:0000001C       System.VarToLStrProc
 0003:00000020       System.VarToWStrProc
 0003:00000024       System.VarToUStrProc
 0003:00000028       System.Default8087CW
 0003:0000002C       System.DefaultMXCSR
 0003:00000030       System.DebugHook
 0003:00000031       System.JITEnable
 0003:00000032       System.NoErrMsg
 0003:00000034       System.LibModuleList
 0003:00000038       System.ModuleUnloadList
 0003:0000003C       System.ObjCastGUID
 0003:0000004C       System.Copyright
 0003:00000050       System.LeakMessageHeader
 0003:00000054       System.SmallLeakDetail
 0003:00000058       System.LargeLeakDetail
 0003:0000005C       System.BytesMessage
 0003:00000060       System.UnknownClassNameMsg
 0003:00000064       System.AnsiStringBlockMessage
 0003:00000068       System.UnicodeStringBlockMessage
 0003:0000006C       System.LeakMessageFooter
 0003:00000070       System.LeakMessageTitle
 0003:00000074       System.SmallBlockTypes
 0003:00000754       System.MemoryManager
 0003:0000076C       System.reMap
 0003:00000788       System.Pow10Tab0
 0003:000008C8       System.Pow10Tab1
 0003:00000960       System.Pow10Tab2
 0003:000009BA       System.errCaption
 0003:000009C0       System.runErrMsg
 0003:000009DE       System.hexDigits
 0003:000009F0       System.EmptyStringA
 0003:000009F4       System.EmptyStringW
 0003:000009F8       System.LocaleTable
 0003:00000C00       System.PreferredLanguagesOverride
 0003:00000C04       SysInit.TlsIndex
 0003:00000C08       SysInit.PtrToNil
 0003:00000C0C       SysInit.DelayLoadHelper
 0003:00000C10       SysInit.Module
 0003:00000C2C       SysInit...
 0003:00000C80       Winapi.Windows.Win32MajorVersion
 0003:00000C84       Winapi.Windows.Win32MinorVersion
 0003:00000C88       Winapi.Windows.Win32Platform
 0003:00000C8C       System.Character.Latin1Categories
 0003:00000D8C       System.Internal.ExcUtils.ExceptTypes
 0003:00000DDC       System.Internal.ExcUtils.ExceptMap
 0003:00000EA4       System.SysUtils.EmptyStr
 0003:00000EA8       System.SysUtils.EmptyWideStr
 0003:00000EAC       System.SysUtils.EmptyAnsiStr
 0003:00000EB0       System.SysUtils.Win32Platform
 0003:00000EB4       System.SysUtils.Win32MajorVersion
 0003:00000EB8       System.SysUtils.Win32MinorVersion
 0003:00000EBC       System.SysUtils.Win32BuildNumber
 0003:00000EC0       System.SysUtils.Win32CSDVersion
 0003:00000EC4       System.SysUtils.MonthDays
 0003:00000EF4       System.SysUtils.LeadBytes
 0003:00000F14       System.SysUtils.HexDisplayPrefix
 0003:00000F18       System.SysUtils.GetDiskFreeSpaceEx
 0003:00000F1C       System.SysUtils.EncodingHashList
 0003:00001308       System.SysUtils.EncodingDataList
 0003:000016F4       System.SysUtils.EncodingNameList
 0003:0000207E       System.SysUtils.TwoDigitLookup
 0003:0000220E       System.SysUtils.TwoHexLookup
 0003:00002610       System.SysUtils.cSimpleBoolStrs
 0003:00002618       System.SysUtils.AccessMode
 0003:00002624       System.SysUtils.ShareMode
 0003:00002638       System.SysUtils.Exclusive
 0003:00002640       System.SysUtils.ShareMode
 0003:00002654       System.SysUtils.FormatErrorStrs
 0003:00002660       System.SysUtils.FCon1E18
 0003:0000266C       System.SysUtils.DCon10
 0003:00002670       System.SysUtils.CWNear
 0003:00002674       System.SysUtils.FMSecsPerDay
 0003:00002678       System.SysUtils.IMSecsPerDay
 0003:0000267C       System.SysUtils.Format
 0003:00002684       System.SysUtils.DefShortMonthNames
 0003:000026B4       System.SysUtils.DefLongMonthNames
 0003:000026E4       System.SysUtils.DefShortDayNames
 0003:00002700       System.SysUtils.DefLongDayNames
 0003:0000271C       System.SysUtils.ErrorMap
 0003:00002754       System.SysUtils.MonitorSupport
 0003:00002768       System.SysUtils.TerminateProcList
 0003:0000276C       System.SysUtils.DefaultFallbackLanguages
 0003:00002770       System.SysUtils.CArchitectures
 0003:00002774       System.SysUtils.CVersionStr
 0003:0000277C       System.SysUtils.CEditionStr
 0003:00002784       System.VarUtils.CResult
 0003:0000278C       System.Variants.NullEqualityRule
 0003:0000278D       System.Variants.NullMagnitudeRule
 0003:0000278E       System.Variants.NullStrictConvert
 0003:00002790       System.Variants.NullAsStringValue
 0003:00002794       System.Variants.PackVarCreation
 0003:00002795       System.Variants.BooleanToStringRule
 0003:00002796       System.Variants.BaseTypeMap
 0003:000027AC       System.Variants.CInvalidCustomVariantType
 0003:000027B0       System.Variants.CRangeToType
 0003:000027C2       System.Variants.CBooleanToRelationship
 0003:000027CE       System.Variants.CmpTypeMap
 0003:00002860       System.Variants.CText
 0003:000028B8       System.Variants.LNextVarType
 0003:000028BC       System.Variants.CRelationshipToBoolean
 0003:000028D0       System.TypInfo.BooleanIdents
 0003:000028D8       System.TypInfo.DotSep
 0003:000028DC       System.Classes.CreateVCLComObjectProc
 0003:000028E0       System.Classes.FilerSignature
 0003:000028E4       System.Classes.Dummy32bitResHeader
 0003:00002904       System.Classes.NilMethod
 0003:0000290C       System.Rtti.Kind
 0003:00002914       ceflib.CefLibrary
 0003:00002918       ceflib.CefCache
 0003:0000291C       ceflib.CefUserDataPath
 0003:00002920       ceflib.CefUserAgent
 0003:00002924       ceflib.CefProductVersion
 0003:00002928       ceflib.CefLocale
 0003:0000292C       ceflib.CefLogFile
 0003:00002930       ceflib.CefLogSeverity
 0003:00002934       ceflib.CefJavaScriptFlags
 0003:00002938       ceflib.CefResourcesDirPath
 0003:0000293C       ceflib.CefLocalesDirPath
 0003:00002940       ceflib.CefPackLoadingDisabled
 0003:00002941       ceflib.CefSingleProcess
 0003:00002942       ceflib.CefNoSandbox
 0003:00002944       ceflib.CefBrowserSubprocessPath
 0003:00002948       ceflib.CefCommandLineArgsDisabled
 0003:0000294C       ceflib.CefRemoteDebuggingPort
 0003:00002950       ceflib.CefGetDataResource
 0003:00002954       ceflib.CefGetLocalizedString
 0003:00002958       ceflib.CefUncaughtExceptionStackSize
 0003:0000295C       ceflib.CefContextSafetyImplementation
 0003:00002960       ceflib.CefPersistSessionCookies
 0003:00002961       ceflib.CefIgnoreCertificateErrors
 0003:00002964       ceflib.CefBackgroundColor
 0003:00002968       ceflib.CefAcceptLanguageList
 0003:0000296C       ceflib.CefWindowsSandboxInfo
 0003:00002970       ceflib.CefWindowlessRenderingEnabled
 0003:00002974       ceflib.CefResourceBundleHandler
 0003:00002978       ceflib.CefBrowserProcessHandler
 0003:0000297C       ceflib.CefRenderProcessHandler
 0003:00002980       ceflib.CefOnBeforeCommandLineProcessing
 0003:00002984       ceflib.CefOnRegisterCustomSchemes
 0003:00002988       ceflib.LibHandle
 0003:0000298C       ceflib.CefIsMainProcess
 0003:00002990       System.IOUtils.TPath.FCCurrentDir
 0003:00002994       System.IOUtils.TPath.FCParentDir
 0003:00002998       System.IOUtils.TPath.FCExtendedPrefix
 0003:0000299C       System.IOUtils.TPath.FCExtendedUNCPrefix
 0003:000029A0       System.IniFiles.TCustomIniFile.SectionNameSeparator
 0003:000029A4       System.IniFiles.Values
 0003:000029AC       System.Win.Registry.KeyNames
 0003:000029C8       System.Win.Registry.Values
 0003:000029D0       ceffilescheme.s
 0003:00002A00       cefclient.handl
 0003:00002A04       cefclient.brows
 0003:00002A08       cefclient.browserId
 0003:00002A0C       cefclient.navigateto
 0004:FFF96000       SysInit.__ImageBase
 0004:00000000       System.TMonitor.CacheLineSize
 0004:00000004       System.DispCallByIDProc
 0004:00000008       System.ExceptProc
 0004:0000000C       System.ErrorProc
 0004:00000010       System.ExceptClsProc
 0004:00000014       System.ExceptObjProc
 0004:00000018       System.RaiseExceptionProc
 0004:0000001C       System.RTLUnwindProc
 0004:00000020       System.RaiseExceptObjProc
 0004:00000024       System.ExceptionAcquired
 0004:00000028       System.ExceptionClass
 0004:0000002C       System.AssertErrorProc
 0004:00000030       System.ExitProcessProc
 0004:00000034       System.AbstractErrorProc
 0004:00000038       System.MainInstance
 0004:0000003C       System.MainThreadID
 0004:00000040       System.IsLibrary
 0004:00000044       System.CmdShow
 0004:00000048       System.CmdLine
 0004:0000004C       System.ExitProc
 0004:00000050       System.IsConsole
 0004:00000051       System.IsMultiThread
 0004:00000052       System.Test8086
 0004:00000054       System.TestSSE
 0004:00000058       System.CPUCount
 0004:0000005C       System.Input
 0004:00000338       System.Output
 0004:00000614       System.ErrOutput
 0004:000008F0       System.MonitorSupport
 0004:000008F4       System.DefaultSystemCodePage
 0004:000008F8       System.DefaultUnicodeCodePage
 0004:000008FC       System.UTF8CompareLocale
 0004:00000900       System.ReportMemoryLeaksOnShutdown
 0004:00000901       System.NeverSleepOnMMThreadContention
 0004:00000904       System..8
 0004:00000908       System.AllocSize2SmallBlockTypeIndX4
 0004:00000A4E       System.MinimumBlockAlignment
 0004:00000A50       System.MediumBlockPoolsCircularList
 0004:00000A60       System.MediumBlocksLocked
 0004:00000A64       System.LastSequentiallyFedMediumBlock
 0004:00000A68       System.MediumSequentialFeedBytesLeft
 0004:00000A6C       System.MediumBlockBinGroupBitmap
 0004:00000A70       System.MediumBlockBinBitmaps
 0004:00000AF0       System.MediumBlockBins
 0004:00002AF0       System.LargeBlocksLocked
 0004:00002AF4       System.LargeBlocksCircularList
 0004:00002B04       System.ExpectedMemoryLeaks
 0004:00002B08       System.ExpectedMemoryLeaksListLocked
 0004:00002B0C       System.MappingObjectHandle
 0004:00002B10       System.InitContext
 0004:00002B40       System.DLLThreadContext
 0004:00002B70       System.GetThreadPreferredUILanguages
 0004:00002B74       System.SetThreadPreferredUILanguages
 0004:00002B78       System.GetThreadUILanguage
 0004:00002B7C       System.UseThreadUILanguageAPI
 0004:00002B80       System.CrSec
 0004:00002B98       System.CachedLangID
 0004:00002B9A       System.CachedLanguageNames
 0004:00002C44       SysInit.ModuleIsLib
 0004:00002C45       SysInit.ModuleIsCpp
 0004:00002C48       SysInit.HInstance
 0004:00002C50       SysInit.@_pfnDliNotifyHook2
 0004:00002C54       SysInit.@_pfnDliFailureHook2
 0004:00002C58       SysInit..1
 0004:00002C5C       SysInit.tlsBuffer
 0004:00002C60       Winapi.Windows..2
 0004:00002C64       Winapi.Windows.HtmlHelpModule
 0004:00002C68       System.Character.DataTable
 0004:00002C6C       System.Character.CatIndexPrimary
 0004:00002C70       System.Character.CatIndexSecondary
 0004:00002C74       System.Character.CategoryTable
 0004:00002C78       System.Character.NumIndexPrimary
 0004:00002C7C       System.Character.NumIndexSecondary
 0004:00002C80       System.Character.NumericValueTable
 0004:00002C84       System.Internal.ExcUtils..2
 0004:00002C88       System.SysUtils.TLanguages.$ClassInitFlag
 0004:00002C8C       System.SysUtils.Exception.$ClassInitFlag
 0004:00002C90       System.SysUtils.Exception.GetExceptionStackInfoProc
 0004:00002C94       System.SysUtils.Exception.GetStackInfoStringProc
 0004:00002C98       System.SysUtils.Exception.CleanUpStackInfoProc
 0004:00002C9C       System.SysUtils.CurrencyString
 0004:00002CA0       System.SysUtils.CurrencyFormat
 0004:00002CA1       System.SysUtils.CurrencyDecimals
 0004:00002CA2       System.SysUtils.DateSeparator
 0004:00002CA4       System.SysUtils.TimeSeparator
 0004:00002CA6       System.SysUtils.ListSeparator
 0004:00002CA8       System.SysUtils.ShortDateFormat
 0004:00002CAC       System.SysUtils.LongDateFormat
 0004:00002CB0       System.SysUtils.TimeAMString
 0004:00002CB4       System.SysUtils.TimePMString
 0004:00002CB8       System.SysUtils.ShortTimeFormat
 0004:00002CBC       System.SysUtils.LongTimeFormat
 0004:00002CC0       System.SysUtils.ShortMonthNames
 0004:00002CF0       System.SysUtils.LongMonthNames
 0004:00002D20       System.SysUtils.ShortDayNames
 0004:00002D3C       System.SysUtils.LongDayNames
 0004:00002D58       System.SysUtils.ThousandSeparator
 0004:00002D5A       System.SysUtils.DecimalSeparator
 0004:00002D5C       System.SysUtils.TwoDigitYearCenturyWindow
 0004:00002D5E       System.SysUtils.NegCurrFormat
 0004:00002D5F       System.SysUtils.SysLocale
 0004:00002D70       System.SysUtils.EraNames
 0004:00002D8C       System.SysUtils.EraYearOffsets
 0004:00002DA8       System.SysUtils.TrueBoolStrs
 0004:00002DAC       System.SysUtils.FalseBoolStrs
 0004:00002DB0       System.SysUtils.TEncoding.FANSIEncoding
 0004:00002DB4       System.SysUtils.TEncoding.FASCIIEncoding
 0004:00002DB8       System.SysUtils.TEncoding.FBigEndianUnicodeEncoding
 0004:00002DBC       System.SysUtils.TEncoding.FUnicodeEncoding
 0004:00002DC0       System.SysUtils.TEncoding.FUTF7Encoding
 0004:00002DC4       System.SysUtils.TEncoding.FUTF8Encoding
 0004:00002DC8       System.SysUtils.TEncoding.$ClassInitFlag
 0004:00002DCC       System.SysUtils.TOSVersion.FArchitecture
 0004:00002DD0       System.SysUtils.TOSVersion.FBuild
 0004:00002DD4       System.SysUtils.TOSVersion.FMajor
 0004:00002DD8       System.SysUtils.TOSVersion.FMinor
 0004:00002DDC       System.SysUtils.TOSVersion.FName
 0004:00002DE0       System.SysUtils.TOSVersion.FPlatform
 0004:00002DE4       System.SysUtils.TOSVersion.FServicePackMajor
 0004:00002DE8       System.SysUtils.TOSVersion.FServicePackMinor
 0004:00002DEC       System.SysUtils.TOSVersion.$ClassInitFlag
 0004:00002DF0       System.SysUtils..07
 0004:00002DF4       System.SysUtils.NTQueryObject
 0004:00002DF8       System.SysUtils.OutOfMemory
 0004:00002DFC       System.SysUtils.InvalidPointer
 0004:00002E00       System.SysUtils.EventCache
 0004:00002E04       System.SysUtils.SyncEventCache
 0004:00002F04       System.SysUtils.EventItemHolders
 0004:00002F08       System.SysUtils.ValidatedUnitHashBuckets
 0004:00003EFC       System.SysUtils.UnitHashBuckets
 0004:00004EF0       System.SysUtils.FLanguages
 0004:00004EF4       System.SysUtils.LanguageArray
 0004:00004EF8       System.VarUtils.VariantChangeTypeEx
 0004:00004EFC       System.VarUtils.VarNeg
 0004:00004F00       System.VarUtils.VarNot
 0004:00004F04       System.VarUtils.VarAdd
 0004:00004F08       System.VarUtils.VarSub
 0004:00004F0C       System.VarUtils.VarMul
 0004:00004F10       System.VarUtils.VarDiv
 0004:00004F14       System.VarUtils.VarIDiv
 0004:00004F18       System.VarUtils.VarMod
 0004:00004F1C       System.VarUtils.VarAnd
 0004:00004F20       System.VarUtils.VarOr
 0004:00004F24       System.VarUtils.VarXor
 0004:00004F28       System.VarUtils.VarCmp
 0004:00004F2C       System.VarUtils.VarI4FromStr
 0004:00004F30       System.VarUtils.VarR4FromStr
 0004:00004F34       System.VarUtils.VarR8FromStr
 0004:00004F38       System.VarUtils.VarDateFromStr
 0004:00004F3C       System.VarUtils.VarCyFromStr
 0004:00004F40       System.VarUtils.VarBoolFromStr
 0004:00004F44       System.VarUtils.VarBstrFromCy
 0004:00004F48       System.VarUtils.VarBstrFromDate
 0004:00004F4C       System.VarUtils.VarBstrFromBool
 0004:00004F50       System.VarUtils..5
 0004:00004F54       System.Variants.VarDispProc
 0004:00004F58       System.Variants.ClearAnyProc
 0004:00004F5C       System.Variants.ChangeAnyProc
 0004:00004F60       System.Variants.RefAnyProc
 0004:00004F64       System.Variants..81
 0004:00004F68       System.Variants.LVarTypes
 0004:00004F6C       System.Variants.LVarTypeSync
 0004:00004F70       System.TypInfo..5
 0004:00004F74       System.Classes.GlobalNameSpace
 0004:00004F78       System.Classes.IsUniqueGlobalComponentNameProc
 0004:00004F7C       System.Classes..77
 0004:00004F80       System.Classes.IntConstList
 0004:00004F84       System.Classes.RegGroups
 0004:00004F88       System.Classes.FindGlobalComponentProcs
 0004:00004F8C       System.Classes.GlobalFixupList
 0004:00004F90       System.Classes.InstBlockList
 0004:00004F94       System.Classes.InstFreeList
 0004:00004F98       System.Math..2
 0004:00004F9C       System.TimeSpan.TTimeSpan.$ClassInitFlag
 0004:00004FA0       System.TimeSpan.TTimeSpan.FMinValue
 0004:00004FA8       System.TimeSpan.TTimeSpan.FMaxValue
 0004:00004FB0       System.TimeSpan.TTimeSpan.FZero
 0004:00004FB8       System.SyncObjs..71
 0004:00004FBC       System.SyncObjs.InitializeConditionVariableProc
 0004:00004FC0       System.SyncObjs.SleepConditionVariableCSProc
 0004:00004FC4       System.SyncObjs.WakeConditionVariableProc
 0004:00004FC8       System.SyncObjs.WakeAllConditionVariableProc
 0004:00004FCC       System.Rtti..24
 0004:00004FD0       System.Rtti.FCodeHeap
 0004:00004FD4       System.Rtti.ModListRemovals
 0004:00004FD8       System.Rtti.StringEqCmpCI
 0004:00004FDC       System.Rtti.PoolLock
 0004:00004FE0       ceflib..611
 0004:00004FE4       ceflib.cef_string_wide_set
 0004:00004FE8       ceflib.cef_string_utf8_set
 0004:00004FEC       ceflib.cef_string_utf16_set
 0004:00004FF0       ceflib.cef_string_set
 0004:00004FF4       ceflib.cef_string_wide_clear
 0004:00004FF8       ceflib.cef_string_utf8_clear
 0004:00004FFC       ceflib.cef_string_utf16_clear
 0004:00005000       ceflib.cef_string_clear
 0004:00005004       ceflib.cef_string_wide_cmp
 0004:00005008       ceflib.cef_string_utf8_cmp
 0004:0000500C       ceflib.cef_string_utf16_cmp
 0004:00005010       ceflib.cef_string_wide_to_utf8
 0004:00005014       ceflib.cef_string_utf8_to_wide
 0004:00005018       ceflib.cef_string_wide_to_utf16
 0004:0000501C       ceflib.cef_string_utf16_to_wide
 0004:00005020       ceflib.cef_string_utf8_to_utf16
 0004:00005024       ceflib.cef_string_utf16_to_utf8
 0004:00005028       ceflib.cef_string_to_utf8
 0004:0000502C       ceflib.cef_string_from_utf8
 0004:00005030       ceflib.cef_string_to_utf16
 0004:00005034       ceflib.cef_string_from_utf16
 0004:00005038       ceflib.cef_string_to_wide
 0004:0000503C       ceflib.cef_string_from_wide
 0004:00005040       ceflib.cef_string_ascii_to_wide
 0004:00005044       ceflib.cef_string_ascii_to_utf16
 0004:00005048       ceflib.cef_string_from_ascii
 0004:0000504C       ceflib.cef_string_userfree_wide_alloc
 0004:00005050       ceflib.cef_string_userfree_utf8_alloc
 0004:00005054       ceflib.cef_string_userfree_utf16_alloc
 0004:00005058       ceflib.cef_string_userfree_alloc
 0004:0000505C       ceflib.cef_string_userfree_wide_free
 0004:00005060       ceflib.cef_string_userfree_utf8_free
 0004:00005064       ceflib.cef_string_userfree_utf16_free
 0004:00005068       ceflib.cef_string_userfree_free
 0004:0000506C       ceflib.cef_browser_host_create_browser
 0004:00005070       ceflib.cef_browser_host_create_browser_sync
 0004:00005074       ceflib.cef_do_message_loop_work
 0004:00005078       ceflib.cef_run_message_loop
 0004:0000507C       ceflib.cef_quit_message_loop
 0004:00005080       ceflib.cef_set_osmodal_loop
 0004:00005084       ceflib.cef_enable_highdpi_support
 0004:00005088       ceflib.cef_execute_process
 0004:0000508C       ceflib.cef_initialize
 0004:00005090       ceflib.cef_shutdown
 0004:00005094       ceflib.cef_string_map_alloc
 0004:00005098       ceflib.cef_string_map_size
 0004:0000509C       ceflib.cef_string_map_find
 0004:000050A0       ceflib.cef_string_map_key
 0004:000050A4       ceflib.cef_string_map_value
 0004:000050A8       ceflib.cef_string_map_append
 0004:000050AC       ceflib.cef_string_map_clear
 0004:000050B0       ceflib.cef_string_map_free
 0004:000050B4       ceflib.cef_string_list_alloc
 0004:000050B8       ceflib.cef_string_list_size
 0004:000050BC       ceflib.cef_string_list_value
 0004:000050C0       ceflib.cef_string_list_append
 0004:000050C4       ceflib.cef_string_list_clear
 0004:000050C8       ceflib.cef_string_list_free
 0004:000050CC       ceflib.cef_string_list_copy
 0004:000050D0       ceflib.cef_register_extension
 0004:000050D4       ceflib.cef_register_scheme_handler_factory
 0004:000050D8       ceflib.cef_clear_scheme_handler_factories
 0004:000050DC       ceflib.cef_add_cross_origin_whitelist_entry
 0004:000050E0       ceflib.cef_remove_cross_origin_whitelist_entry
 0004:000050E4       ceflib.cef_clear_cross_origin_whitelist
 0004:000050E8       ceflib.cef_currently_on
 0004:000050EC       ceflib.cef_post_task
 0004:000050F0       ceflib.cef_post_delayed_task
 0004:000050F4       ceflib.cef_parse_url
 0004:000050F8       ceflib.cef_create_url
 0004:000050FC       ceflib.cef_get_mime_type
 0004:00005100       ceflib.cef_get_extensions_for_mime_type
 0004:00005104       ceflib.cef_base64encode
 0004:00005108       ceflib.cef_base64decode
 0004:0000510C       ceflib.cef_uriencode
 0004:00005110       ceflib.cef_uridecode
 0004:00005114       ceflib.cef_parse_csscolor
 0004:00005118       ceflib.cef_parse_json
 0004:0000511C       ceflib.cef_parse_jsonand_return_error
 0004:00005120       ceflib.cef_write_json
 0004:00005124       ceflib.cef_request_create
 0004:00005128       ceflib.cef_post_data_create
 0004:0000512C       ceflib.cef_post_data_element_create
 0004:00005130       ceflib.cef_stream_reader_create_for_file
 0004:00005134       ceflib.cef_stream_reader_create_for_data
 0004:00005138       ceflib.cef_stream_reader_create_for_handler
 0004:0000513C       ceflib.cef_stream_writer_create_for_file
 0004:00005140       ceflib.cef_stream_writer_create_for_handler
 0004:00005144       ceflib.cef_v8context_get_current_context
 0004:00005148       ceflib.cef_v8context_get_entered_context
 0004:0000514C       ceflib.cef_v8context_in_context
 0004:00005150       ceflib.cef_v8value_create_undefined
 0004:00005154       ceflib.cef_v8value_create_null
 0004:00005158       ceflib.cef_v8value_create_bool
 0004:0000515C       ceflib.cef_v8value_create_int
 0004:00005160       ceflib.cef_v8value_create_uint
 0004:00005164       ceflib.cef_v8value_create_double
 0004:00005168       ceflib.cef_v8value_create_date
 0004:0000516C       ceflib.cef_v8value_create_string
 0004:00005170       ceflib.cef_v8value_create_object
 0004:00005174       ceflib.cef_v8value_create_array
 0004:00005178       ceflib.cef_v8value_create_function
 0004:0000517C       ceflib.cef_v8stack_trace_get_current
 0004:00005180       ceflib.cef_xml_reader_create
 0004:00005184       ceflib.cef_zip_reader_create
 0004:00005188       ceflib.cef_string_multimap_alloc
 0004:0000518C       ceflib.cef_string_multimap_size
 0004:00005190       ceflib.cef_string_multimap_find_count
 0004:00005194       ceflib.cef_string_multimap_enumerate
 0004:00005198       ceflib.cef_string_multimap_key
 0004:0000519C       ceflib.cef_string_multimap_value
 0004:000051A0       ceflib.cef_string_multimap_append
 0004:000051A4       ceflib.cef_string_multimap_clear
 0004:000051A8       ceflib.cef_string_multimap_free
 0004:000051AC       ceflib.cef_cookie_manager_get_global_manager
 0004:000051B0       ceflib.cef_cookie_manager_create_manager
 0004:000051B4       ceflib.cef_command_line_create
 0004:000051B8       ceflib.cef_command_line_get_global
 0004:000051BC       ceflib.cef_process_message_create
 0004:000051C0       ceflib.cef_value_create
 0004:000051C4       ceflib.cef_binary_value_create
 0004:000051C8       ceflib.cef_dictionary_value_create
 0004:000051CC       ceflib.cef_list_value_create
 0004:000051D0       ceflib.cef_get_path
 0004:000051D4       ceflib.cef_launch_process
 0004:000051D8       ceflib.cef_response_create
 0004:000051DC       ceflib.cef_urlrequest_create
 0004:000051E0       ceflib.cef_visit_web_plugin_info
 0004:000051E4       ceflib.cef_refresh_web_plugins
 0004:000051E8       ceflib.cef_add_web_plugin_path
 0004:000051EC       ceflib.cef_add_web_plugin_directory
 0004:000051F0       ceflib.cef_remove_web_plugin_path
 0004:000051F4       ceflib.cef_unregister_internal_web_plugin
 0004:000051F8       ceflib.cef_force_web_plugin_shutdown
 0004:000051FC       ceflib.cef_register_web_plugin_crash
 0004:00005200       ceflib.cef_is_web_plugin_unstable
 0004:00005204       ceflib.cef_get_geolocation
 0004:00005208       ceflib.cef_task_runner_get_for_current_thread
 0004:0000520C       ceflib.cef_task_runner_get_for_thread
 0004:00005210       ceflib.cef_begin_tracing
 0004:00005214       ceflib.cef_end_tracing
 0004:00005218       ceflib.cef_now_from_system_trace_time
 0004:0000521C       ceflib.cef_request_context_get_global_context
 0004:00005220       ceflib.cef_request_context_create_context
 0004:00005224       ceflib.create_context_shared
 0004:00005228       ceflib.cef_get_min_log_level
 0004:0000522C       ceflib.cef_get_vlog_level
 0004:00005230       ceflib.cef_log
 0004:00005234       ceflib.cef_get_current_platform_thread_id
 0004:00005238       ceflib.cef_get_current_platform_thread_handle
 0004:0000523C       ceflib.cef_trace_event_instant
 0004:00005240       ceflib.cef_trace_event_begin
 0004:00005244       ceflib.cef_trace_event_end
 0004:00005248       ceflib.cef_trace_counter
 0004:0000524C       ceflib.cef_trace_counter_id
 0004:00005250       ceflib.cef_trace_event_async_begin
 0004:00005254       ceflib.cef_trace_event_async_step_into
 0004:00005258       ceflib.cef_trace_event_async_step_past
 0004:0000525C       ceflib.cef_trace_event_async_end
 0004:00005260       ceflib.cef_print_settings_create
 0004:00005264       ceflib.cef_drag_data_create
 0004:00005268       ceflib.cef_resource_bundle_get_global
 0004:0000526C       System.IOUtils.TPath.FAltDirectorySeparatorChar
 0004:0000526E       System.IOUtils.TPath.FDirectorySeparatorChar
 0004:00005270       System.IOUtils.TPath.FPathSeparator
 0004:00005272       System.IOUtils.TPath.FVolumeSeparatorChar
 0004:00005274       System.IOUtils.TPath.FExtensionSeparatorChar
 0004:00005278       System.IOUtils.TPath.FInvalidPathChars
 0004:0000527C       System.IOUtils.TPath.FInvalidFileNameChars
 0004:00005280       System.IOUtils.TPath.FPathWildcardChars
 0004:00005284       System.IOUtils.TPath.FFileNameWildCardChars
 0004:00005288       System.IOUtils.TPath.$ClassInitFlag
 0004:0000528C       System.IOUtils..1
 0004:00005290       System.IniFiles..7
 0004:00005294       System.Win.Registry.TRegistry.FUseRegDeleteKeyEx
 0004:00005298       System.Win.Registry.TRegistry.$ClassInitFlag
 0004:0000529C       System.Win.Registry..5
 0004:000052A0       cefclient.Window
 0004:000052A4       cefclient.backWnd
 0004:000052A8       cefclient.forwardWnd
 0004:000052AC       cefclient.reloadWnd
 0004:000052B0       cefclient.stopWnd
 0004:000052B4       cefclient.editWnd
 0004:000052B8       cefclient.editWndOldProc
 0004:000052BC       cefclient.isLoading
 0004:000052BD       cefclient.canGoBack
 0004:000052BE       cefclient.canGoForward
 0004:000052C0       cefclient.setting
 0004:0000538C       cefclient.wndClass
 0004:000053B4       cefclient.$life
 0005:00000000       System.RaiseListPtr
 0005:00000004       System.InOutRes
 0005:00000008       System.SysUtils.FTempLanguages
 0005:0000000C       System.Classes.GlobalLoaded
 0005:00000010       System.Classes.GlobalLists
 0005:00000014       SysInit.TlsLast


Line numbers for ceflib(ceflib.pas) segment .text

  9804 0001:0005000C  9806 0001:0005000D  9807 0001:00050016  9808 0001:00050020
  9813 0001:00050024  9814 0001:0005002D  9815 0001:00050037  9818 0001:00050038
  9819 0001:0005003B  9820 0001:00050048  9823 0001:0005004C  9825 0001:0005004F
  9826 0001:0005005C  9829 0001:00050060  9830 0001:00050063  9831 0001:00050070
  9836 0001:00050074  9840 0001:0005007C  9923 0001:00050084  9924 0001:00050087
  9925 0001:0005009E 10667 0001:000500A0 10668 0001:000500AD 10675 0001:00050150
 10676 0001:00050152 10688 0001:00050154 10689 0001:0005019B 10692 0001:000501A4
 10694 0001:000501B0 10695 0001:000501C2 10696 0001:000501C7 10698 0001:000501CC
 10699 0001:000501DE 10700 0001:000501F0 10701 0001:00050202 10702 0001:00050214
 10703 0001:00050226 10704 0001:00050238 10705 0001:0005024A 10706 0001:0005025C
 10707 0001:0005026E 10708 0001:00050280 10709 0001:00050292 10710 0001:000502A4
 10711 0001:000502B6 10712 0001:000502C8 10713 0001:000502DA 10714 0001:000502EC
 10715 0001:000502FE 10716 0001:00050310 10717 0001:00050322 10718 0001:00050334
 10719 0001:00050346 10720 0001:00050358 10737 0001:0005036A 10738 0001:00050374
 10739 0001:0005037E 10740 0001:00050388 10741 0001:00050392 10742 0001:0005039C
 10743 0001:000503A6 10744 0001:000503B0 10745 0001:000503BA 10746 0001:000503C4
 10747 0001:000503CE 10764 0001:000503D8 10765 0001:000503EA 10766 0001:000503FC
 10767 0001:0005040E 10768 0001:00050420 10769 0001:00050432 10770 0001:00050444
 10771 0001:00050456 10772 0001:00050468 10773 0001:0005047A 10774 0001:0005048C
 10775 0001:0005049E 10776 0001:000504B0 10777 0001:000504C2 10778 0001:000504D4
 10779 0001:000504E6 10780 0001:000504F8 10781 0001:0005050A 10782 0001:0005051C
 10783 0001:0005052E 10784 0001:00050540 10785 0001:00050552 10786 0001:00050564
 10787 0001:00050576 10788 0001:00050588 10789 0001:0005059A 10790 0001:000505AC
 10791 0001:000505BE 10792 0001:000505D0 10793 0001:000505E2 10794 0001:000505F4
 10795 0001:00050606 10796 0001:00050618 10797 0001:0005062A 10798 0001:0005063C
 10799 0001:0005064E 10800 0001:00050660 10801 0001:00050672 10802 0001:00050684
 10803 0001:00050696 10804 0001:000506A8 10806 0001:000506BA 10807 0001:000506CC
 10808 0001:000506DE 10810 0001:000506F0 10811 0001:00050702 10812 0001:00050714
 10813 0001:00050726 10814 0001:00050738 10815 0001:0005074A 10816 0001:0005075C
 10817 0001:0005076E 10818 0001:00050780 10819 0001:00050792 10820 0001:000507A4
 10821 0001:000507B6 10822 0001:000507C8 10823 0001:000507DA 10824 0001:000507EC
 10825 0001:000507FE 10826 0001:00050810 10827 0001:00050822 10828 0001:00050834
 10829 0001:00050846 10830 0001:00050858 10831 0001:0005086A 10832 0001:0005087C
 10833 0001:0005088E 10834 0001:000508A0 10835 0001:000508B2 10836 0001:000508C4
 10838 0001:000508D6 10839 0001:000508E8 10840 0001:000508FA 10841 0001:0005090C
 10842 0001:0005091E 10843 0001:00050930 10844 0001:00050942 10845 0001:00050954
 10846 0001:00050966 10848 0001:00050978 10849 0001:0005098A 10852 0001:0005099C
 10854 0001:000509AE 10856 0001:000509C0 10858 0001:000509D2 10860 0001:000509E4
 10862 0001:000509F6 10864 0001:00050A08 10866 0001:00050A1A 10868 0001:00050A2C
 10870 0001:00050A3E 10872 0001:00050A50 10874 0001:00050A62 10875 0001:00050A74
 10876 0001:00050A86 10877 0001:00050A98 10878 0001:00050AAA 10879 0001:00050ABC
 10880 0001:00050ACE 10881 0001:00050AE0 10882 0001:00050AF2 10884 0001:00050B04
 10886 0001:00050B16 10887 0001:00050B28 10889 0001:00050B3A 10890 0001:00050B4C
 10891 0001:00050B5E 10893 0001:00050B70 10894 0001:00050B82 10895 0001:00050B94
 10897 0001:00050BA6 10898 0001:00050BB8 10899 0001:00050BCA 10901 0001:00050BDC
 10902 0001:00050BEE 10904 0001:00050C00 10905 0001:00050C12 10906 0001:00050C24
 10907 0001:00050C36 10908 0001:00050C48 10909 0001:00050C5A 10910 0001:00050C6C
 10911 0001:00050C7E 10912 0001:00050C90 10914 0001:00050CA2 10916 0001:00050CB4
 10918 0001:00050CC6 10920 0001:00050CD8 11074 0001:00051447 11076 0001:0005145D
 11077 0001:0005146F 11078 0001:00051479 11079 0001:00051483 11081 0001:0005148D
 11085 0001:00051495 11086 0001:0005149F 11087 0001:000514D0 11088 0001:00051502
 11089 0001:0005150C 11090 0001:0005153E 11091 0001:00051548 11092 0001:00051577
 11093 0001:000515A0 11094 0001:000515C9 11095 0001:000515F2 11096 0001:000515F8
 11097 0001:00051621 11098 0001:0005164A 11099 0001:00051673 11100 0001:0005167A
 11101 0001:00051680 11102 0001:00051686 11103 0001:0005168C 11104 0001:00051693
 11105 0001:00051699 11107 0001:000516C2 11108 0001:000516DF 11109 0001:000516F7
 11111 0001:000516FB 11112 0001:000516FD 11114 0001:000516FF 11115 0001:0005171E
 11117 0001:00051725 11118 0001:00051727 11129 0001:000535B0 11130 0001:000535B9
 11131 0001:000535BF 11151 0001:000535C0 11153 0001:000535C9 11154 0001:000535D2
 11155 0001:000535D8 11156 0001:000535E3 11158 0001:000535EA 11161 0001:000535EC
 11162 0001:000535F3 11163 0001:000535FC 11164 0001:0005360E 11165 0001:00053613
 11168 0001:00053618 11169 0001:0005361B 11170 0001:0005361F 11171 0001:0005362E
 11172 0001:00053635 11190 0001:00053638 11191 0001:00053640 11192 0001:0005364E
 11193 0001:00053652 11194 0001:00053674 11197 0001:0005367C 11198 0001:00053684
 11199 0001:00053688 11200 0001:000536AC 11203 0001:000536B4 11204 0001:000536BA
 11205 0001:000536C3 11206 0001:000536CB 11209 0001:000536D0 11210 0001:000536D6
 11212 0001:000536DA 11213 0001:000536E3 11215 0001:000536EE 11216 0001:000536F5
 11228 0001:000536F8 11229 0001:0005371A 11230 0001:0005371F 11231 0001:00053729
 11232 0001:00053733 11236 0001:00053777 11317 0001:000537AC 11318 0001:000537B0
 11319 0001:000537B6 11320 0001:000537B8 11469 0001:000537BC 11470 0001:000537E1
 11471 0001:000537E6 11472 0001:000537F0 11474 0001:00053848 11603 0001:0005387C
 11604 0001:00053882 11605 0001:0005388A 11606 0001:00053892 11607 0001:0005389A
 11608 0001:000538A2 11609 0001:000538AA 11610 0001:000538B2 11611 0001:000538BA
 11615 0001:000538BC 11616 0001:000538C1 11617 0001:000538C8 11618 0001:000538CF
 11619 0001:000538D6 11620 0001:000538DD 11621 0001:000538E4 11622 0001:000538EB
 11623 0001:000538F2 11628 0001:000538F4 11629 0001:000538FA 11630 0001:00053905
 11631 0001:00053916 11632 0001:00053923 11637 0001:0005392C 11638 0001:00053935
 11639 0001:00053943 11640 0001:00053952 11641 0001:0005395C 11672 0001:00053964
 11673 0001:00053967 11674 0001:00053975 11677 0001:0005397C 11678 0001:0005397F
 11679 0001:0005398D 11682 0001:00053994 11683 0001:00053997 11684 0001:000539A9
 11687 0001:000539B0 11689 0001:000539B3 11692 0001:000539B8 11693 0001:000539BB
 11694 0001:000539C0 11697 0001:000539C4 11698 0001:000539C7 11699 0001:000539CC
 11704 0001:000539D0 11705 0001:000539E4 11706 0001:000539EE 11707 0001:00053A0C
 11710 0001:00053A34 11711 0001:00053A48 11712 0001:00053A52 11713 0001:00053A70
 11716 0001:00053A98 11717 0001:00053AAC 11718 0001:00053AB6 11719 0001:00053AD4
 11722 0001:00053AFC 11723 0001:00053B10 11724 0001:00053B1A 11725 0001:00053B38
 11728 0001:00053B60 11729 0001:00053B74 11730 0001:00053B7E 11731 0001:00053B9C
 11734 0001:00053BC4 11735 0001:00053BD8 11736 0001:00053BE2 11737 0001:00053C00
 11740 0001:00053C28 11741 0001:00053C3C 11742 0001:00053C46 11743 0001:00053C64
 11746 0001:00053C8C 11747 0001:00053CA0 11748 0001:00053CAA 11749 0001:00053CC8
 11752 0001:00053CF0 11753 0001:00053D04 11754 0001:00053D0E 11755 0001:00053D2C
 11758 0001:00053D54 11759 0001:00053D68 11760 0001:00053D72 11761 0001:00053D90
 11764 0001:00053DB8 11765 0001:00053DCC 11766 0001:00053DD6 11767 0001:00053DF4
 11770 0001:00053E1C 11771 0001:00053E30 11772 0001:00053E3A 11773 0001:00053E58
 11776 0001:00053E80 11777 0001:00053E94 11778 0001:00053E9E 11779 0001:00053EBC
 11782 0001:00053EE4 11783 0001:00053EF8 11784 0001:00053F02 11785 0001:00053F20
 11789 0001:00053F48 11790 0001:00053F5E 11791 0001:00053F68 11793 0001:00053F9E
 11824 0001:00053FCC 11825 0001:00053FEB 11826 0001:00053FF5 11827 0001:00054000
 11828 0001:00054020 11829 0001:0005402A 11830 0001:00054034 11843 0001:00054090
 11844 0001:0005409A 11845 0001:000540A5 11846 0001:000540C7 11847 0001:000540D0
 11848 0001:000540D8 11851 0001:00054134 11852 0001:00054148 11853 0001:00054152
 11854 0001:0005416C 11857 0001:00054190 11858 0001:000541A4 11859 0001:000541AE
 11860 0001:000541C8 11863 0001:000541EC 11864 0001:00054200 11865 0001:0005420A
 11866 0001:00054229 11869 0001:00054250 11870 0001:00054264 11871 0001:0005426E
 11872 0001:0005428D 11879 0001:000542B4 11880 0001:000542C8 11881 0001:000542D2
 11883 0001:00054303 11887 0001:00054328 11888 0001:0005433E 11889 0001:00054348
 11890 0001:00054377 11894 0001:000543A4 11895 0001:000543BA 11896 0001:000543C4
 11897 0001:000543F7 11901 0001:00054424 11902 0001:0005443C 11903 0001:00054446
 11905 0001:00054497 12035 0001:000544D0 12036 0001:000544E8 12037 0001:000544F2
 12041 0001:00054530 12045 0001:00054564 12046 0001:0005457A 12047 0001:00054584
 12048 0001:000545AE 12056 0001:000545DC 12057 0001:000545FE 12058 0001:0005460D
 12059 0001:0005461B 12061 0001:0005462D 12062 0001:0005463C 12063 0001:0005464B
 12064 0001:00054661 12059 0001:00054662 12065 0001:00054665 12066 0001:0005466F
 12068 0001:00054699 12070 0001:000546A9 12074 0001:000546D8 12075 0001:000546EC
 12076 0001:000546F6 12077 0001:00054717 12083 0001:0005473C 12084 0001:0005475D
 12085 0001:00054767 12086 0001:00054771 12088 0001:00054793 12089 0001:000547AF
 12093 0001:000547E0 12094 0001:000547F6 12095 0001:00054800 12096 0001:0005482A
 12101 0001:00054858 12102 0001:00054870 12103 0001:0005487A 12105 0001:000548BC
 12363 0001:000548F4 12364 0001:00054908 12365 0001:0005492A 12373 0001:00054950
 12374 0001:00054969 12376 0001:000549B8 12377 0001:000549DA 12382 0001:00054A20
 12383 0001:00054A38 12385 0001:00054A92 12394 0001:00054AD0 12395 0001:00054AF7
 12396 0001:00054AFB 12397 0001:00054B01 12398 0001:00054B0F 12399 0001:00054B17
 12403 0001:00054BA2 12404 0001:00054BAB 12438 0001:00054BD8 12439 0001:00054BEE
 12440 0001:00054BF8 12442 0001:00054C22 12445 0001:00054C50 12446 0001:00054C64
 12447 0001:00054C6E 12448 0001:00054C88 12451 0001:00054CAC 12452 0001:00054CC0
 12453 0001:00054CE6 12456 0001:00054D0C 12457 0001:00054D20 12458 0001:00054D46
 12461 0001:00054D6C 12462 0001:00054D80 12463 0001:00054DA6 12468 0001:00054DCC
 12469 0001:00054DE0 12470 0001:00054DFD 12623 0001:00054E20 12625 0001:00054E39
 12626 0001:00054E43 12628 0001:00054EAD 12634 0001:00054EF4 12635 0001:00054F0A
 12636 0001:00054F14 12637 0001:00054F48 12643 0001:00054F78 12644 0001:00054F8E
 12645 0001:00054F96 12646 0001:00054FA0 12647 0001:00054FC6 12648 0001:00054FCC
 12649 0001:00054FD7 12654 0001:00055004 12655 0001:00055018 12656 0001:00055022
 12657 0001:0005504C 12661 0001:00055074 12663 0001:00055078 12664 0001:00055082
 12665 0001:0005508F 12669 0001:00055094 12671 0001:00055098 12672 0001:000550A2
 12673 0001:000550AF 12676 0001:000550B4 12678 0001:000550B7 12679 0001:000550BF
 12680 0001:000550C4 12715 0001:000550C8 12716 0001:000550E7 12717 0001:000550F6
 12718 0001:00055104 12720 0001:00055116 12721 0001:00055125 12722 0001:00055134
 12723 0001:0005514A 12718 0001:0005514B 12724 0001:0005514E 12725 0001:00055156
 12727 0001:0005516E 12729 0001:0005517E 12865 0001:000551A4 12866 0001:000551A7
 12867 0001:000551AF 12868 0001:000551B4 12952 0001:000551B8 12953 0001:000551CC
 12954 0001:000551D6 12955 0001:00055204 12960 0001:0005522C 12961 0001:0005522F
 12962 0001:00055237 12963 0001:00055243 12968 0001:00055248 12969 0001:0005524B
 12970 0001:00055253 12971 0001:0005525B 12976 0001:00055260 12977 0001:00055274
 12978 0001:0005527E 12979 0001:0005529A 12985 0001:000552C0 12986 0001:000552DA
 12987 0001:000552E7 12988 0001:000552E9 12989 0001:000552ED 12990 0001:000552F9
 12991 0001:000552FE 12993 0001:00055304 12994 0001:0005530B 12995 0001:00055312
 12998 0001:0005531B 12999 0001:00055322 13000 0001:00055329 13002 0001:00055330
 13005 0001:00055354 13006 0001:0005535F 13007 0001:00055363 13008 0001:0005536B
 13009 0001:00055376 13012 0001:00055384 13013 0001:00055385 13014 0001:0005538A
 13015 0001:00055390 13016 0001:00055394 13021 0001:00055398 13022 0001:000553AD
 13023 0001:000553C5 13024 0001:000553C8 13027 0001:00055480 13028 0001:0005548B
 13029 0001:00055494 13030 0001:00055498 13031 0001:000554A3 13034 0001:000554B4
 13035 0001:000554BD 13036 0001:000554C1 13037 0001:000554E0 13038 0001:000554E7
 13041 0001:000554FC 13042 0001:000554FD 13043 0001:00055502 13044 0001:00055508
 13045 0001:0005550C 13050 0001:00055510 13051 0001:00055517 13052 0001:0005552C
 13055 0001:00055530 13056 0001:00055534 13057 0001:00055540 13060 0001:00055544
 13061 0001:00055548 13062 0001:00055554 13065 0001:00055558 13066 0001:0005555F
 13067 0001:00055574 13070 0001:00055578 13071 0001:00055582 13072 0001:0005559D
 13077 0001:000555A4 13078 0001:000555B0 13079 0001:000555B9 13080 0001:000555CF
 13084 0001:000555D8 13085 0001:000555DF 13088 0001:000555E0 13089 0001:000555E1
 13090 0001:000555EA 13097 0001:000555EC 13098 0001:0005560C 13099 0001:00055615
 13100 0001:00055623 13101 0001:0005562E 13102 0001:0005563D 13104 0001:00055652
 13105 0001:00055661 13106 0001:00055673 13107 0001:00055688 13102 0001:00055689
 13109 0001:00055699 13111 0001:000556AC 13115 0001:000556D0 13116 0001:000556FC
 13117 0001:0005572E 13120 0001:0005575C 13121 0001:00055763 13122 0001:00055778
 13126 0001:0005577C 13127 0001:00055783 13131 0001:00055784 13132 0001:0005578B
 13135 0001:0005578C 13136 0001:00055790 13137 0001:0005579C 13140 0001:000557A0
 13141 0001:000557A4 13142 0001:000557B0 13145 0001:000557B4 13146 0001:000557B8
 13147 0001:000557C4 13150 0001:000557C8 13151 0001:000557E2 13152 0001:0005580F
 13156 0001:00055834 13157 0001:0005583B 13161 0001:0005583C 13162 0001:00055843
 13166 0001:00055844 13167 0001:0005584B 13171 0001:0005584C 13172 0001:00055853
 13175 0001:00055854 13176 0001:0005585D 13177 0001:00055861 13178 0001:00055880
 13179 0001:00055887 13184 0001:0005589C 13185 0001:000558A0 13186 0001:000558AC
 13190 0001:000558B0 13191 0001:000558B7 13195 0001:000558B8 13196 0001:000558BF
 13200 0001:000558C0 13201 0001:000558C7 13207 0001:000558C8 13208 0001:000558D7
 13209 0001:000558E1 13210 0001:000558EB 13211 0001:000558FE 13214 0001:00055908
 13215 0001:0005590F 13216 0001:00055924 13219 0001:00055928 13220 0001:0005592B
 13221 0001:00055939 13224 0001:00055944 13225 0001:0005594B 13226 0001:00055959
 13229 0001:00055960 13230 0001:00055967 13231 0001:0005597C 13234 0001:00055980
 13235 0001:00055999 13236 0001:000559BD 13239 0001:000559E0 13240 0001:000559E6
 13241 0001:00055A04 13244 0001:00055A08 13245 0001:00055A21 13246 0001:00055A45
 13249 0001:00055A68 13250 0001:00055A6E 13251 0001:00055A8C 13254 0001:00055A90
 13255 0001:00055A97 13256 0001:00055AA5 13259 0001:00055AAC 13260 0001:00055AB3
 13261 0001:00055AC8 13264 0001:00055ACC 13265 0001:00055AD0 13266 0001:00055ADC
 13269 0001:00055AE0 13270 0001:00055AE4 13271 0001:00055AF0 13274 0001:00055AF4
 13275 0001:00055B0D 13276 0001:00055B31 13281 0001:00055B54 13282 0001:00055B60
 13283 0001:00055B69 13284 0001:00055B74 13285 0001:00055B85 13290 0001:00055B8C
 13291 0001:00055B95 13292 0001:00055B9E 13294 0001:00055BA6 13298 0001:00055BAC
 13299 0001:00055BB3 13303 0001:00055BB4 13304 0001:00055BBB 13308 0001:00055BBC
 13309 0001:00055BC3 13313 0001:00055BC4 13314 0001:00055BCB 13318 0001:00055BCC
 13319 0001:00055BD3 13322 0001:00055BD4 13323 0001:00055BED 13324 0001:00055C11
 13327 0001:00055C34 13328 0001:00055C4D 13329 0001:00055C7B 13332 0001:00055CB0
 13333 0001:00055CB9 13334 0001:00055CBD 13335 0001:00055CDC 13336 0001:00055CE3
 13395 0001:00055CF8 13396 0001:00055CFC 13397 0001:00055D08 13401 0001:00055D0C
 13402 0001:00055D25 13403 0001:00055D4B 13407 0001:00055D70 13408 0001:00055D77
 13414 0001:00055D78 13415 0001:00055D9B 13416 0001:00055DB8 13417 0001:00055DC7
 13418 0001:00055DD8 13419 0001:00055DE6 13420 0001:00055DF5 13421 0001:00055E00
 13420 0001:00055E21 13423 0001:00055E31 13425 0001:00055E41 13428 0001:00055E64
 13429 0001:00055E6A 13430 0001:00055E7B 13434 0001:00055E80 13435 0001:00055E99
 13436 0001:00055EBF 13440 0001:00055EE4 13441 0001:00055EEB 13444 0001:00055EEC
 13445 0001:00055EF5 13446 0001:00055EF9 13447 0001:00055F18 13448 0001:00055F1F
 13453 0001:00055F34 13454 0001:00055F38 13455 0001:00055F44 13459 0001:00055F48
 13460 0001:00055F49 13461 0001:00055F52 13465 0001:00055F54 13466 0001:00055F5B
 13469 0001:00055F5C 13470 0001:00055F63 13471 0001:00055F71 13474 0001:00055F78
 13475 0001:00055F7C 13476 0001:00055F83 13479 0001:00055F88 13480 0001:00055F8E
 13481 0001:00055F9F 13484 0001:00055FA4 13485 0001:00055FA5 13486 0001:00055FAE
 13490 0001:00055FB0 13491 0001:00055FB7 13496 0001:00055FB8 13497 0001:00055FC1
 13498 0001:00055FCA 13499 0001:00055FD2 13502 0001:00055FD8 13503 0001:00055FE1
 13504 0001:00055FE5 13505 0001:00056004 13506 0001:0005600B 13616 0001:00056020
 13617 0001:00056024 13618 0001:00056030 13624 0001:00056034 13625 0001:00056056
 13626 0001:00056060 13627 0001:0005606A 13628 0001:000560A2 13631 0001:000560C8
 13632 0001:000560CF 13633 0001:000560DD 13636 0001:000560E4 13637 0001:000560E9
 13638 0001:000560F2 13641 0001:000560F8 13642 0001:000560FF 13643 0001:0005610E
 13646 0001:00056114 13647 0001:00056117 13648 0001:00056125 13651 0001:00056130
 13652 0001:00056137 13653 0001:00056145 13656 0001:0005614C 13657 0001:00056153
 13658 0001:00056168 13661 0001:0005616C 13662 0001:00056170 13663 0001:00056177
 13667 0001:0005617C 13668 0001:00056183 13671 0001:00056184 13672 0001:0005618B
 13673 0001:00056199 13676 0001:000561A0 13677 0001:000561A6 13678 0001:000561B7
 13683 0001:000561BC 13684 0001:000561C5 13685 0001:000561CE 13686 0001:000561D6
 13689 0001:000561DC 13690 0001:000561E0 13691 0001:000561ED 13694 0001:000561F0
 13695 0001:000561F7 13696 0001:00056206 13701 0001:0005620C 13702 0001:00056215
 13703 0001:0005621E 13704 0001:00056226 13707 0001:0005622C 13708 0001:00056245
 13709 0001:00056249 13710 0001:0005626D 13715 0001:00056290 13716 0001:00056299
 13717 0001:000562A2 13718 0001:000562AA 13721 0001:000562B0 13722 0001:000562B9
 13723 0001:000562BD 13724 0001:000562DC 13725 0001:000562E3 13791 0001:000562F8
 13792 0001:00056303 13795 0001:00056304 13796 0001:0005630D 13797 0001:00056320
 13800 0001:00056324 13801 0001:0005632D 13802 0001:00056343 13807 0001:00056348
 13808 0001:00056354 13809 0001:00056362 13810 0001:00056378 13813 0001:00056380
 13814 0001:00056389 13815 0001:000563A3 13821 0001:000563AC 13822 0001:000563CE
 13823 0001:000563D8 13824 0001:00056410 13827 0001:00056438 13828 0001:00056441
 13829 0001:00056454 13832 0001:00056458 13833 0001:00056461 13834 0001:00056474
 13837 0001:00056478 13838 0001:0005647E 13839 0001:0005648F 13842 0001:00056494
 13843 0001:000564B0 13844 0001:000564E1 13848 0001:00056504 13849 0001:00056520
 13850 0001:00056552 13855 0001:00056588 13856 0001:00056594 13857 0001:0005659D
 13858 0001:000565B0 13861 0001:000565B8 13862 0001:000565BE 13863 0001:000565CF
 13866 0001:000565D4 13867 0001:000565DB 13868 0001:000565EB 13873 0001:000565F0
 13874 0001:000565F9 13875 0001:00056602 13876 0001:0005660F 13883 0001:00056618
 13884 0001:0005663F 13885 0001:00056653 13886 0001:00056661 13887 0001:00056673
 13886 0001:0005669A 13888 0001:0005669D 13891 0001:000566F2 13893 0001:00056702
 13900 0001:00056734 13901 0001:0005675E 13902 0001:00056772 13903 0001:00056780
 13904 0001:00056792 13903 0001:000567B9 13905 0001:000567BC 13908 0001:00056831
 13910 0001:00056841 13914 0001:00056874 13915 0001:0005687E 13918 0001:00056880
 13919 0001:00056884 13920 0001:00056890 13923 0001:00056894 13924 0001:0005689B
 13925 0001:000568B4 13928 0001:000568C0 13929 0001:000568C3 13930 0001:000568CE
 13934 0001:000568D4 13935 0001:000568DE 13938 0001:000568E0 13939 0001:000568E7
 13940 0001:000568FF 13943 0001:00056904 13944 0001:0005690B 13945 0001:0005691C
 13949 0001:00056920 13950 0001:00056927 13954 0001:00056928 13955 0001:0005692F
 13962 0001:00056930 13963 0001:00056950 13964 0001:00056959 13965 0001:00056967
 13966 0001:00056978 13967 0001:00056987 13969 0001:0005699C 13970 0001:000569AB
 13971 0001:000569BD 13972 0001:000569D2 13967 0001:000569D3 13974 0001:000569E3
 13976 0001:000569F6 13979 0001:00056A20 13980 0001:00056A3A 13981 0001:00056A6A
 13984 0001:00056A90 13985 0001:00056A97 13986 0001:00056AA5 13989 0001:00056AAC
 13990 0001:00056AB0 13991 0001:00056ABC 13994 0001:00056AC0 13995 0001:00056AC4
 13996 0001:00056AD0 13999 0001:00056AD4 14000 0001:00056AD8 14001 0001:00056AE4
 14004 0001:00056AE8 14005 0001:00056AEF 14006 0001:00056B04 14009 0001:00056B08
 14010 0001:00056B0C 14011 0001:00056B18 14014 0001:00056B1C 14015 0001:00056B20
 14016 0001:00056B2C 14019 0001:00056B30 14020 0001:00056B37 14021 0001:00056B47
 14024 0001:00056B4C 14025 0001:00056B53 14026 0001:00056B6B 14029 0001:00056B70
 14030 0001:00056B7A 14031 0001:00056B93 14036 0001:00056B98 14037 0001:00056BA4
 14038 0001:00056BAD 14039 0001:00056BC6 14042 0001:00056BD0 14043 0001:00056BD7
 14044 0001:00056BE4 14049 0001:00056BE8 14050 0001:00056BF1 14051 0001:00056BFA
 14052 0001:00056C07 14055 0001:00056C10 14056 0001:00056C14 14057 0001:00056C20
 14060 0001:00056C24 14061 0001:00056C28 14062 0001:00056C34 14065 0001:00056C38
 14066 0001:00056C3C 14067 0001:00056C48 14070 0001:00056C4C 14071 0001:00056C50
 14072 0001:00056C5C 14075 0001:00056C60 14076 0001:00056C64 14077 0001:00056C70
 14080 0001:00056C74 14081 0001:00056C78 14082 0001:00056C84 14085 0001:00056C88
 14086 0001:00056C8C 14087 0001:00056C98 14090 0001:00056C9C 14091 0001:00056CA0
 14092 0001:00056CAC 14095 0001:00056CB0 14096 0001:00056CB4 14097 0001:00056CC0
 14100 0001:00056CC4 14101 0001:00056CDE 14102 0001:00056D0B 14105 0001:00056D30
 14106 0001:00056D34 14107 0001:00056D40 14110 0001:00056D44 14111 0001:00056D48
 14112 0001:00056D54 14118 0001:00056D58 14119 0001:00056D67 14120 0001:00056D71
 14122 0001:00056D92 14126 0001:00056D9C 14127 0001:00056DBF 14128 0001:00056DF3
 14134 0001:00056E1C 14135 0001:00056E3E 14136 0001:00056E48 14138 0001:00056E83
 14141 0001:00056EAC 14142 0001:00056EB5 14143 0001:00056EB9 14144 0001:00056ED8
 14145 0001:00056EDF 14158 0001:00056F2C 14159 0001:00056F5C 14160 0001:00056F7B
 14161 0001:00056F8D 14160 0001:00056FB4 14162 0001:00056FB7 14163 0001:00056FBC
 14164 0001:00056FCB 14165 0001:00056FD6 14167 0001:00057020 14168 0001:0005703B
 14169 0001:00057051 14172 0001:000570A4 14173 0001:000570AD 14174 0001:000570B1
 14175 0001:000570D0 14176 0001:000570D7 14662 0001:000570EC 14663 0001:000570F2
 14664 0001:00057103 14667 0001:00057108 14668 0001:0005710C 14669 0001:00057118
 14672 0001:0005711C 14673 0001:00057122 14674 0001:00057133 14677 0001:00057138
 14678 0001:0005713C 14679 0001:00057148 14682 0001:0005714C 14683 0001:00057153
 14684 0001:00057168 14687 0001:0005716C 14688 0001:00057173 14689 0001:00057188
 14692 0001:0005718C 14693 0001:00057193 14694 0001:000571A8 14697 0001:000571AC
 14698 0001:000571B3 14699 0001:000571C8 14702 0001:000571CC 14703 0001:000571E6
 14704 0001:00057213 14707 0001:00057238 14708 0001:0005723C 14709 0001:00057248
 14717 0001:0005724C 14718 0001:00057271 14719 0001:0005727B 14720 0001:00057285
 14721 0001:0005729F 14722 0001:000572B9 14723 0001:000572D4 14726 0001:00057304
 14727 0001:0005730D 14728 0001:00057311 14729 0001:00057330 14730 0001:00057337
 14735 0001:0005734C 14736 0001:0005735E 14737 0001:0005736E 14738 0001:00057371
 14739 0001:00057378 14744 0001:00057394 14749 0001:00057398 14750 0001:000573AD
 14751 0001:000573B6 14752 0001:000573C0 14756 0001:000573DC 14757 0001:000573E4
 14762 0001:000573E8 14763 0001:000573EF 14764 0001:000573FD 14767 0001:00057404
 14768 0001:0005740B 14769 0001:00057420 14774 0001:00057424 14775 0001:00057430
 14776 0001:00057439 14777 0001:00057448 14780 0001:00057450 14781 0001:00057457
 14782 0001:0005746C 14787 0001:00057470 14788 0001:0005747C 14789 0001:00057485
 14790 0001:0005749B 14793 0001:000574A4 14794 0001:000574AB 14795 0001:000574C0
 14798 0001:000574C4 14799 0001:000574CB 14800 0001:000574E0 14803 0001:000574E4
 14804 0001:000574EB 14805 0001:000574F9 14808 0001:00057500 14809 0001:00057507
 14810 0001:00057515 14814 0001:0005751C 14815 0001:00057523 14819 0001:00057524
 14820 0001:0005752B 14823 0001:0005752C 14824 0001:00057533 14825 0001:00057541
 14828 0001:00057548 14829 0001:0005754C 14830 0001:00057553 14833 0001:00057558
 14834 0001:0005755C 14835 0001:00057568 14838 0001:0005756C 14839 0001:00057575
 14840 0001:00057579 14841 0001:00057598 14842 0001:0005759F 14847 0001:000575B4
 14848 0001:000575BB 14849 0001:000575C9 14852 0001:000575D0 14853 0001:000575D7
 14854 0001:000575EC 14859 0001:000575F0 14860 0001:000575FC 14861 0001:00057605
 14862 0001:00057614 14865 0001:0005761C 14866 0001:00057623 14867 0001:00057632
 14870 0001:00057638 14871 0001:0005763F 14872 0001:0005764D 14875 0001:00057654
 14876 0001:0005765B 14877 0001:00057669 14880 0001:00057670 14881 0001:00057677
 14882 0001:0005768C 14885 0001:00057690 14886 0001:00057697 14887 0001:000576A5
 14890 0001:000576AC 14891 0001:000576B3 14892 0001:000576C8 14895 0001:000576CC
 14896 0001:000576D3 14897 0001:000576E1 14900 0001:000576E8 14901 0001:000576EF
 14902 0001:00057704 14905 0001:00057708 14906 0001:0005770F 14907 0001:00057724
 14910 0001:00057728 14911 0001:0005772F 14912 0001:00057744 14915 0001:00057748
 14916 0001:0005774C 14917 0001:00057753 14920 0001:00057758 14921 0001:0005775F
 14922 0001:0005776D 14925 0001:00057774 14926 0001:00057778 14927 0001:00057784
 14932 0001:00057788 14933 0001:00057791 14934 0001:0005779A 14935 0001:000577A7
 14938 0001:000577B0 14939 0001:000577B4 14940 0001:000577C0 14943 0001:000577C4
 14944 0001:000577C8 14945 0001:000577D4 14948 0001:000577D8 14949 0001:000577DC
 14950 0001:000577E8 14953 0001:000577EC 14954 0001:000577F0 14955 0001:000577FC
 14958 0001:00057800 14959 0001:0005781A 14960 0001:00057847 14963 0001:0005786C
 14964 0001:00057870 14965 0001:0005787C 14971 0001:00057880 14972 0001:0005788C
 14973 0001:00057895 14974 0001:000578A0 14975 0001:000578B6 14980 0001:000578C0
 14981 0001:000578C9 14982 0001:000578D2 14983 0001:000578DF 14986 0001:000578E8
 14987 0001:000578F1 14988 0001:000578F5 14989 0001:00057914 14990 0001:0005791B
 14995 0001:00057930 14996 0001:00057936 14997 0001:00057947 15002 0001:0005794C
 15003 0001:00057958 15004 0001:00057961 15005 0001:00057970 15008 0001:00057978
 15009 0001:0005797F 15010 0001:0005798E 15013 0001:00057994 15014 0001:0005799B
 15015 0001:000579A9 15019 0001:000579B0 15020 0001:000579B7 15023 0001:000579B8
 15024 0001:000579BF 15025 0001:000579CD 15028 0001:000579D4 15029 0001:000579D8
 15030 0001:000579E4 15033 0001:000579E8 15034 0001:000579EF 15035 0001:000579FE
 15040 0001:00057A04 15041 0001:00057A0D 15042 0001:00057A16 15043 0001:00057A1E
 15047 0001:00057A24 15048 0001:00057A2C 15053 0001:00057A30 15054 0001:00057A39
 15055 0001:00057A42 15056 0001:00057A4A 15059 0001:00057A50 15060 0001:00057A59
 15061 0001:00057A5D 15062 0001:00057A7C 15063 0001:00057A83 15841 0001:00057A98
 15842 0001:00057AAA 15843 0001:00057ABA 15844 0001:00057AC4 15845 0001:00057ACB
 15849 0001:00057AE8 15850 0001:00057AF6 15851 0001:00057AF8 15855 0001:00057AFC
 15856 0001:00057AFF 15857 0001:00057B01 15864 0001:00057B08 15865 0001:00057B20
 15866 0001:00057B2A 15867 0001:00057B35 15871 0001:00057B54 15872 0001:00057B6B
 15873 0001:00057B71 15874 0001:00057B8C 15875 0001:00057B8E 15879 0001:00057B98
 15880 0001:00057B9C 15881 0001:00057BA2 15882 0001:00057BB4 15883 0001:00057BB6
 15888 0001:00057BBC 15889 0001:00057BCE 15890 0001:00057BDE 15891 0001:00057BE8
 15896 0001:00057C04 15897 0001:00057C07 15898 0001:00057C09 15903 0001:00057C10
 15904 0001:00057C25 15905 0001:00057C2E 15906 0001:00057C38 15911 0001:00057C54
 15912 0001:00057C5B 15914 0001:00057C98 15919 0001:00057CA0 15920 0001:00057CB2
 15921 0001:00057CC2 15923 0001:00057CC5 15924 0001:00057CCC 15925 0001:00057CD3
 15926 0001:00057CDA 15927 0001:00057CE1 15928 0001:00057CE8 15929 0001:00057CEF
 15930 0001:00057CF6 15931 0001:00057CFD 15932 0001:00057D04 15933 0001:00057D0B
 15934 0001:00057D12 15935 0001:00057D19 15936 0001:00057D20 15937 0001:00057D27
 15939 0001:00057D2E 15942 0001:00057D48 15943 0001:00057D4B 15944 0001:00057D52
 15947 0001:00057D54 15948 0001:00057D57 15949 0001:00057D5E 15952 0001:00057D60
 15953 0001:00057D63 15954 0001:00057D6A 15957 0001:00057D6C 15958 0001:00057D6F
 15959 0001:00057D76 15962 0001:00057D78 15963 0001:00057D7B 15964 0001:00057D82
 15967 0001:00057D84 15968 0001:00057D87 15969 0001:00057D8E 15972 0001:00057D90
 15973 0001:00057D93 15974 0001:00057D9A 15977 0001:00057D9C 15978 0001:00057D9F
 15979 0001:00057DA6 15982 0001:00057DA8 15983 0001:00057DAB 15984 0001:00057DB2
 15987 0001:00057DB4 15988 0001:00057DB7 15989 0001:00057DBE 15992 0001:00057DC0
 15993 0001:00057DC3 15994 0001:00057DCA 15997 0001:00057DCC 15998 0001:00057DCF
 15999 0001:00057DD6 16002 0001:00057DD8 16003 0001:00057DDB 16004 0001:00057DE2
 16007 0001:00057DE4 16008 0001:00057DE7 16009 0001:00057DEE 16013 0001:00057DF0
 16014 0001:00057DF3 16015 0001:00057DF5 16048 0001:00057DFC 16049 0001:00057E0E
 16050 0001:00057E1E 16052 0001:00057E21 16053 0001:00057E28 16054 0001:00057E2F
 16055 0001:00057E36 16056 0001:00057E3D 16058 0001:00057E44 16063 0001:00057E60
 16068 0001:00057E64 16076 0001:00057E68 16077 0001:00057E6B 16078 0001:00057E6D
 16082 0001:00057E74 16083 0001:00057E76 16087 0001:00057E78 16088 0001:00057E7A
 16094 0001:00057E7C 16095 0001:00057E8E 16096 0001:00057E9E 16098 0001:00057EA1
 16099 0001:00057EA8 16100 0001:00057EAF 16101 0001:00057EB6 16103 0001:00057EBD
 16107 0001:00057ED8 16109 0001:00057EDB 16113 0001:00057EE0 16115 0001:00057EE3
 16119 0001:00057EE8 16121 0001:00057EEB 16127 0001:00057EF0 16245 0001:00057EF4
 16246 0001:00057F06 16247 0001:00057F16 16249 0001:00057F19 16250 0001:00057F20
 16251 0001:00057F27 16252 0001:00057F2E 16253 0001:00057F35 16254 0001:00057F3C
 16255 0001:00057F43 16257 0001:00057F4A 16261 0001:00057F64 16263 0001:00057F67
 16267 0001:00057F6C 16268 0001:00057F6F 16269 0001:00057F71 16275 0001:00057F78
 16281 0001:00057F7C 16287 0001:00057F80 16293 0001:00057F84 16298 0001:00057F88
 16299 0001:00057F8A 16443 0001:00057F8C 16444 0001:00057F93 16448 0001:00057F94
 16449 0001:00057F9B 16453 0001:00057F9C 16454 0001:00057FA3 16457 0001:00057FA4
 16458 0001:00057FAB 16459 0001:00057FB9 16462 0001:00057FC0 16463 0001:00057FC7
 16464 0001:00057FD5 16467 0001:00057FDC 16468 0001:00057FE3 16469 0001:00057FF1
 16473 0001:00057FF8 16474 0001:00057FFF 16478 0001:00058000 16479 0001:00058007
 16482 0001:00058008 16483 0001:00058011 16484 0001:00058015 16485 0001:00058034
 16486 0001:0005803B 16540 0001:00058050 16541 0001:00058062 16542 0001:00058072
 16544 0001:00058075 16545 0001:0005807C 16546 0001:00058083 16547 0001:0005808A
 16548 0001:00058091 16550 0001:00058098 16558 0001:000580B4 16559 0001:000580D6
 16560 0001:000580E0 16561 0001:0005811E 16566 0001:00058144 16567 0001:00058150
 16568 0001:00058176 16574 0001:00058180 16575 0001:000581A2 16576 0001:000581AC
 16577 0001:000581B6 16579 0001:000581EC 16583 0001:00058214 16584 0001:00058220
 16585 0001:00058242 16589 0001:0005824C 16590 0001:00058266 16592 0001:00058293
 16596 0001:000582B8 16597 0001:000582BE 16598 0001:000582DC 16601 0001:000582E0
 16602 0001:000582FC 16603 0001:0005832D 16607 0001:00058350 16608 0001:00058359
 16609 0001:00058379 16617 0001:00058380 16618 0001:000583A9 16619 0001:000583B3
 16620 0001:000583E5 16621 0001:00058417 16622 0001:00058449 16623 0001:0005847B
 16624 0001:00058482 16625 0001:00058489 16626 0001:000584AC 16627 0001:000584CF
 16628 0001:000584D5 16629 0001:000584D9 16630 0001:000584FE 16631 0001:0005850D
 16633 0001:00058546 16639 0001:00058570 16640 0001:0005857C 16643 0001:000585CB
 16649 0001:000585D4 16650 0001:000585F7 16651 0001:00058601 16653 0001:00058638
 16658 0001:00058660 16659 0001:0005866C 16660 0001:0005868E 16667 0001:00058698
 16668 0001:000586C0 16669 0001:000586C9 16670 0001:000586D7 16671 0001:000586DD
 16673 0001:000586EF 16674 0001:00058707 16675 0001:00058718 16671 0001:00058719
 16676 0001:0005871C 16680 0001:00058755 16682 0001:00058768 16686 0001:00058794
 16687 0001:0005879D 16688 0001:000587BD 16691 0001:000587C4 16692 0001:000587CD
 16693 0001:000587D1 16694 0001:000587F0 16695 0001:000587F7 16699 0001:0005880C
 16700 0001:00058826 16702 0001:00058853 16706 0001:00058878 16707 0001:00058891
 16709 0001:000588C1 16715 0001:000588F8 16716 0001:0005891B 16717 0001:00058925
 16718 0001:0005895C 16722 0001:00058984 16723 0001:000589A0 16725 0001:000589D6
 16760 0001:00058A10 16761 0001:00058A17 16765 0001:00058A18 16766 0001:00058A1D
 16767 0001:00058A2D 16771 0001:00058A34 16772 0001:00058A3E 16776 0001:00058A40
 16777 0001:00058A5C 16778 0001:00058A89 16782 0001:00058AB0 16783 0001:00058ABA
 16787 0001:00058ABC 16788 0001:00058AC1 16789 0001:00058AD1 16793 0001:00058AD4
 16794 0001:00058ADF 16800 0001:00058AE0 16801 0001:00058AEF 16802 0001:00058AF9
 16803 0001:00058B14 16806 0001:00058B20 16807 0001:00058B27 16808 0001:00058B3C
 16812 0001:00058B40 16813 0001:00058B47 16819 0001:00058B48 16820 0001:00058B6A
 16821 0001:00058B74 16822 0001:00058BA1 16826 0001:00058BC8 16827 0001:00058BD4
 16828 0001:00058BF6 16833 0001:00058C00 16834 0001:00058C09 16835 0001:00058C12
 16836 0001:00058C1A 16846 0001:00058C20 16847 0001:00058C47 16848 0001:00058C51
 16849 0001:00058C5C 16850 0001:00058C65 16851 0001:00058C73 16853 0001:00058C85
 16854 0001:00058C9D 16855 0001:00058CAE 16851 0001:00058CAF 16856 0001:00058CB2
 16859 0001:00058CFB 16861 0001:00058D0E 16866 0001:00058D3C 16867 0001:00058D48
 16869 0001:00058D76 16874 0001:00058D80 16875 0001:00058D89 16876 0001:00058D92
 16877 0001:00058D9A 16881 0001:00058DA0 16882 0001:00058DAB 16886 0001:00058DAC
 16887 0001:00058DB6 16891 0001:00058DB8 16892 0001:00058DC6 16896 0001:00058DC8
 16897 0001:00058DD3 16901 0001:00058DD4 16902 0001:00058DD9 16903 0001:00058DEE
 16907 0001:00058DF4 16908 0001:00058DF5 16909 0001:00058E04 16913 0001:00058E08
 16914 0001:00058E0D 16915 0001:00058E1D 16919 0001:00058E24 16920 0001:00058E2F
 16924 0001:00058E30 16925 0001:00058E3B 16929 0001:00058E3C 16930 0001:00058E47
 16934 0001:00058E48 16935 0001:00058E53 16939 0001:00058E54 16940 0001:00058E5B
 16944 0001:00058E5C 16945 0001:00058E66 16949 0001:00058E68 16950 0001:00058E6F
 16953 0001:00058E70 16954 0001:00058E77 16955 0001:00058E8C 16959 0001:00058E90
 16960 0001:00058EAC 16961 0001:00058ED4 16965 0001:00058EF8 16966 0001:00058F01
 16967 0001:00058F21 16971 0001:00058F28 16972 0001:00058F32 16975 0001:00058F34
 16976 0001:00058F37 16977 0001:00058F42 16982 0001:00058F48 16983 0001:00058F53
 16988 0001:00058F54 16989 0001:00058F5F 16993 0001:00058F60 16994 0001:00058F68
 16997 0001:00058F6C 16998 0001:00058F70 16999 0001:00058F7C 17002 0001:00058F80
 17003 0001:00058F84 17004 0001:00058F90 17008 0001:00058F94 17009 0001:00058F9E
 17013 0001:00058FA0 17014 0001:00058FA7 17017 0001:00058FA8 17018 0001:00058FAB
 17019 0001:00058FB8 17024 0001:00058FBC 17025 0001:00058FD8 17027 0001:00059005
 17032 0001:0005902C 17033 0001:00059035 17034 0001:0005903E 17035 0001:00059046
 17039 0001:0005904C 17040 0001:00059057 17043 0001:00059058 17044 0001:00059061
 17045 0001:00059065 17046 0001:00059084 17047 0001:0005908B 17051 0001:000590A0
 17052 0001:000590AB 17056 0001:000590AC 17057 0001:000590B3 17062 0001:000590B4
 17063 0001:000590BB 17064 0001:000590CD 17067 0001:000590D4 17068 0001:000590DB
 17069 0001:000590F0 17072 0001:000590F4 17073 0001:000590FB 17074 0001:00059109
 17077 0001:00059110 17078 0001:00059114 17079 0001:00059120 17082 0001:00059124
 17083 0001:00059128 17084 0001:00059134 17089 0001:00059138 17090 0001:00059144
 17091 0001:0005914D 17092 0001:00059160 17095 0001:00059168 17096 0001:00059171
 17097 0001:00059175 17098 0001:00059194 17099 0001:0005919B 17104 0001:000591B0
 17105 0001:000591C2 17106 0001:000591D2 17107 0001:000591D5 17108 0001:000591DC
 17113 0001:000591F8 17119 0001:000591FC 17120 0001:00059211 17121 0001:0005921A
 17122 0001:00059224 17126 0001:00059240 17127 0001:00059248 17314 0001:0005924C
 17315 0001:00059255 17316 0001:0005925E 17317 0001:00059266 17322 0001:0005926C
 17323 0001:00059275 17324 0001:0005927E 17325 0001:00059286 17330 0001:0005928C
 17331 0001:00059298 17332 0001:000592A1 17333 0001:000592AC 17334 0001:000592BD
 17337 0001:000592C4 17338 0001:000592CB 17339 0001:000592DD 17346 0001:000592E4
 17347 0001:00059304 17348 0001:0005930D 17349 0001:0005931B 17350 0001:00059326
 17352 0001:0005933B 17353 0001:0005934A 17354 0001:0005935C 17355 0001:00059371
 17350 0001:00059372 17357 0001:00059382 17359 0001:00059395 17366 0001:000593BC
 17367 0001:000593DC 17368 0001:000593E5 17369 0001:000593F3 17370 0001:000593FE
 17372 0001:00059413 17373 0001:00059422 17374 0001:00059434 17375 0001:00059449
 17370 0001:0005944A 17377 0001:0005945A 17379 0001:0005946D 17382 0001:00059494
 17383 0001:0005949B 17384 0001:000594A9 17387 0001:000594B0 17388 0001:000594B7
 17389 0001:000594C5 17396 0001:000594CC 17397 0001:000594EC 17398 0001:000594F5
 17399 0001:00059503 17400 0001:0005950E 17402 0001:00059523 17403 0001:00059532
 17404 0001:00059544 17405 0001:00059559 17400 0001:0005955A 17407 0001:0005956A
 17409 0001:0005957D 17414 0001:000595A4 17415 0001:000595B0 17416 0001:000595B9
 17417 0001:000595C8 17420 0001:000595D0 17421 0001:000595D6 17422 0001:000595E7
 17425 0001:000595EC 17426 0001:000595F0 17427 0001:000595FC 17432 0001:00059600
 17433 0001:00059609 17434 0001:00059612 17435 0001:0005961F 17438 0001:00059628
 17439 0001:0005962C 17440 0001:00059638 17444 0001:0005963C 17445 0001:0005963D
 17446 0001:00059646 17451 0001:00059648 17452 0001:00059651 17453 0001:0005965A
 17454 0001:00059662 17457 0001:00059668 17458 0001:0005966C 17459 0001:00059678
 17462 0001:0005967C 17463 0001:00059680 17464 0001:0005968C 17467 0001:00059690
 17468 0001:00059696 17469 0001:000596A7 17474 0001:000596AC 17475 0001:000596B5
 17476 0001:000596BE 17477 0001:000596C6 17481 0001:000596CC 17482 0001:000596D3
 17487 0001:000596D4 17488 0001:000596DD 17489 0001:000596E6 17490 0001:000596EE
 17493 0001:000596F4 17494 0001:000596FD 17495 0001:00059701 17496 0001:00059720
 17497 0001:00059727 17505 0001:0005973C 17506 0001:00059747 17507 0001:00059752
 17509 0001:00059771 17513 0001:0005977C 17514 0001:00059785 17515 0001:00059789
 17516 0001:000597A8 17517 0001:000597AF 17986 0001:000597C4 17987 0001:000597C8
 17988 0001:000597D4 17991 0001:000597D8 17992 0001:000597DF 17993 0001:000597F1
 17996 0001:000597F8 17997 0001:000597FE 17998 0001:0005980F 18001 0001:00059814
 18002 0001:0005981E 18003 0001:00059834 18006 0001:0005983C 18007 0001:00059843
 18008 0001:00059850 18011 0001:00059854 18012 0001:0005985E 18013 0001:00059874
 18016 0001:0005987C 18017 0001:0005987F 18018 0001:0005988B 18022 0001:00059894
 18023 0001:0005989C 18026 0001:000598A0 18027 0001:000598AA 18028 0001:000598BD
 18032 0001:000598C4 18033 0001:000598CB 18036 0001:000598CC 18037 0001:000598D6
 18038 0001:000598E5 18041 0001:000598EC 18042 0001:000598F3 18043 0001:000598FB
 18046 0001:00059900 18047 0001:0005990A 18048 0001:00059920 18051 0001:00059928
 18052 0001:00059942 18053 0001:0005996F 18056 0001:00059994 18057 0001:00059998
 18058 0001:000599A4 18061 0001:000599A8 18062 0001:000599AC 18063 0001:000599B8
 18066 0001:000599BC 18067 0001:000599D6 18068 0001:00059A03 18071 0001:00059A28
 18072 0001:00059A2C 18073 0001:00059A38 18076 0001:00059A3C 18077 0001:00059A43
 18078 0001:00059A50 18082 0001:00059A54 18083 0001:00059A77 18084 0001:00059AA8
 18087 0001:00059AD0 18088 0001:00059ADA 18089 0001:00059AEB 18093 0001:00059AF0
 18094 0001:00059B13 18095 0001:00059B44 18098 0001:00059B6C 18099 0001:00059B76
 18100 0001:00059B89 18103 0001:00059B90 18104 0001:00059B9A 18105 0001:00059BA8
 18109 0001:00059BB0 18110 0001:00059BD3 18111 0001:00059C04 18114 0001:00059C2C
 18115 0001:00059C33 18116 0001:00059C40 18119 0001:00059C44 18120 0001:00059C4B
 18121 0001:00059C58 18127 0001:00059C5C 18128 0001:00059C68 18129 0001:00059C71
 18130 0001:00059C7F 18134 0001:00059C88 18135 0001:00059CAB 18136 0001:00059CDC
 18139 0001:00059D04 18140 0001:00059D0D 18141 0001:00059D11 18142 0001:00059D30
 18143 0001:00059D37 18148 0001:00059D4C 18149 0001:00059D53 18150 0001:00059D65
 18154 0001:00059D6C 18155 0001:00059D71 18156 0001:00059D7E 18160 0001:00059D84
 18161 0001:00059D8B 18164 0001:00059D8C 18165 0001:00059DA6 18166 0001:00059DD3
 18169 0001:00059DF8 18170 0001:00059DFC 18171 0001:00059E08 18174 0001:00059E0C
 18175 0001:00059E26 18176 0001:00059E53 18179 0001:00059E78 18180 0001:00059E7C
 18181 0001:00059E88 18184 0001:00059E8C 18185 0001:00059E98 18186 0001:00059EAF
 18189 0001:00059EB8 18190 0001:00059EC1 18191 0001:00059EC5 18192 0001:00059EE4
 18193 0001:00059EEB 18198 0001:00059F00 18199 0001:00059F04 18200 0001:00059F10
 18204 0001:00059F14 18205 0001:00059F1E 18206 0001:00059F34 18211 0001:00059F3C
 18212 0001:00059F48 18213 0001:00059F51 18214 0001:00059F67 18219 0001:00059F70
 18220 0001:00059F79 18221 0001:00059F82 18222 0001:00059F8F 18228 0001:00059F98
 18229 0001:00059FA4 18230 0001:00059FAD 18231 0001:00059FC0 18236 0001:00059FC8
 18237 0001:00059FD1 18238 0001:00059FDC 18239 0001:00059FEC 18244 0001:00059FF8
 18245 0001:0005A001 18246 0001:0005A00A 18247 0001:0005A012 18254 0001:0005A018
 18255 0001:0005A038 18256 0001:0005A041 18257 0001:0005A04F 18258 0001:0005A060
 18259 0001:0005A06F 18261 0001:0005A084 18262 0001:0005A093 18263 0001:0005A0A5
 18264 0001:0005A0BA 18259 0001:0005A0BB 18266 0001:0005A0CB 18268 0001:0005A0DE
 18273 0001:0005A108 18274 0001:0005A114 18275 0001:0005A11D 18276 0001:0005A133
 18280 0001:0005A13C 18281 0001:0005A143 18286 0001:0005A144 18287 0001:0005A150
 18288 0001:0005A159 18289 0001:0005A168 18294 0001:0005A170 18295 0001:0005A179
 18296 0001:0005A182 18297 0001:0005A18A 18302 0001:0005A190 18303 0001:0005A19C
 18304 0001:0005A1A5 18305 0001:0005A1BB 18310 0001:0005A1C4 18311 0001:0005A1CD
 18312 0001:0005A1D6 18313 0001:0005A1E3 18317 0001:0005A1EC 18318 0001:0005A206
 18319 0001:0005A233 18322 0001:0005A258 18323 0001:0005A25C 18324 0001:0005A268
 18327 0001:0005A26C 18328 0001:0005A270 18329 0001:0005A27C 18333 0001:0005A280
 18334 0001:0005A29A 18335 0001:0005A2C7 18338 0001:0005A2EC 18339 0001:0005A2F0
 18340 0001:0005A2FC 18343 0001:0005A300 18344 0001:0005A306 18345 0001:0005A317
 18350 0001:0005A31C 18351 0001:0005A325 18352 0001:0005A32E 18353 0001:0005A33B
 18359 0001:0005A344 18360 0001:0005A366 18361 0001:0005A370 18362 0001:0005A3A1
 18368 0001:0005A3C8 18369 0001:0005A3D4 18370 0001:0005A3DD 18371 0001:0005A3F2
 18377 0001:0005A3FC 18378 0001:0005A41E 18379 0001:0005A428 18380 0001:0005A459
 18386 0001:0005A480 18387 0001:0005A48C 18388 0001:0005A496 18389 0001:0005A4AC
 18395 0001:0005A4B4 18396 0001:0005A4C0 18397 0001:0005A4C9 18398 0001:0005A4DB
 18404 0001:0005A4E4 18405 0001:0005A506 18406 0001:0005A510 18407 0001:0005A544
 18412 0001:0005A56C 18413 0001:0005A575 18414 0001:0005A57E 18415 0001:0005A58B
 18420 0001:0005A594 18421 0001:0005A5A0 18422 0001:0005A5A9 18423 0001:0005A5B4
 18424 0001:0005A5CA 18430 0001:0005A5D4 18431 0001:0005A5F6 18432 0001:0005A600
 18433 0001:0005A631 18437 0001:0005A658 18438 0001:0005A661 18439 0001:0005A665
 18440 0001:0005A684 18441 0001:0005A68B 18570 0001:0005A6A0 18574 0001:0005A6A4
 18575 0001:0005A6A6 18579 0001:0005A6A8 18580 0001:0005A6AA 18585 0001:0005A6AC
 18586 0001:0005A6C1 18587 0001:0005A6D1 18589 0001:0005A6D4 18590 0001:0005A6DB
 18591 0001:0005A6E2 18592 0001:0005A6E9 18593 0001:0005A6F0 18594 0001:0005A6F7
 18596 0001:0005A6FE 18601 0001:0005A71C 18603 0001:0005A72A 18608 0001:0005A730
 18609 0001:0005A732 18614 0001:0005A734 18615 0001:0005A737 18616 0001:0005A739
 18622 0001:0005A740 18623 0001:0005A759 18624 0001:0005A769 18625 0001:0005A76C
 18626 0001:0005A76F 18627 0001:0005A776 18632 0001:0005A794 18633 0001:0005A7A0
 18634 0001:0005A7C4 18640 0001:0005A7CC 18641 0001:0005A7D3 18645 0001:0005A7D4
 18646 0001:0005A7DB 18649 0001:0005A7DC 18650 0001:0005A7E5 18651 0001:0005A7E9
 18652 0001:0005A808 18653 0001:0005A80F 18900 0001:0005A824 18901 0001:0005A836
 18902 0001:0005A846 18903 0001:0005A849 18904 0001:0005A850 18910 0001:0005A86C
 18916 0001:0005A870 18917 0001:0005A871 18918 0001:0005A879 18922 0001:0005A87C
 18923 0001:0005A8AB 18924 0001:0005A8B4 18925 0001:0005A8BF 18944 0001:0005A8F8
 18945 0001:0005A8FC 18946 0001:0005A908 18949 0001:0005A90C 18950 0001:0005A913
 18951 0001:0005A920 18954 0001:0005A924 18955 0001:0005A92A 18956 0001:0005A93B
 18959 0001:0005A940 18960 0001:0005A949 18961 0001:0005A95C 18964 0001:0005A960
 18965 0001:0005A97A 18966 0001:0005A9A7 18970 0001:0005A9CC 18971 0001:0005A9E6
 18972 0001:0005AA19 18975 0001:0005AA40 18976 0001:0005AA59 18977 0001:0005AA87
 18980 0001:0005AAB0 18981 0001:0005AAB9 18982 0001:0005AABD 18983 0001:0005AADC
 18984 0001:0005AAE3 19174 0001:0005AAF8 19175 0001:0005AB0A 19176 0001:0005AB1A
 19177 0001:0005AB1D 19178 0001:0005AB24 19183 0001:0005AB40 19189 0001:0005AB44
 19190 0001:0005AB59 19191 0001:0005AB62 19192 0001:0005AB6C 19196 0001:0005AB88
 19197 0001:0005AB90 19391 0001:0005AB94 19392 0001:0005AB98 19393 0001:0005ABA4
 19396 0001:0005ABA8 19397 0001:0005ABAF 19398 0001:0005ABBD 19402 0001:0005ABC4
 19403 0001:0005ABE7 19406 0001:0005AC1C 19410 0001:0005AC40 19411 0001:0005AC49
 19412 0001:0005AC69 19415 0001:0005AC70 19416 0001:0005AC77 19417 0001:0005AC8C
 19420 0001:0005AC90 19421 0001:0005AC96 19422 0001:0005ACA7 19425 0001:0005ACAC
 19426 0001:0005ACB0 19427 0001:0005ACBC 19430 0001:0005ACC0 19431 0001:0005ACDA
 19432 0001:0005AD07 19436 0001:0005AD2C 19437 0001:0005AD46 19438 0001:0005AD73
 19443 0001:0005AD98 19444 0001:0005ADB4 19445 0001:0005ADE9 19449 0001:0005AE10
 19450 0001:0005AE1B 19456 0001:0005AE1C 19457 0001:0005AE3E 19458 0001:0005AE48
 19459 0001:0005AE52 19460 0001:0005AE88 19464 0001:0005AEB0 19465 0001:0005AECE
 19466 0001:0005AF21 19469 0001:0005AF54 19470 0001:0005AF5D 19471 0001:0005AF61
 19472 0001:0005AF80 19473 0001:0005AF87 19478 0001:0005AF9C 19479 0001:0005AFA3
 19480 0001:0005AFB8 19487 0001:0005AFBC 19488 0001:0005AFDE 19489 0001:0005AFE8
 19490 0001:0005AFF2 19491 0001:0005AFFD 19493 0001:0005B03B 19497 0001:0005B064
 19498 0001:0005B06D 19499 0001:0005B071 19500 0001:0005B090 19501 0001:0005B097
 19783 0001:0005B0AC 19784 0001:0005B0B0 19785 0001:0005B0BC 19788 0001:0005B0C0
 19789 0001:0005B0C7 19790 0001:0005B0D5 19793 0001:0005B0DC 19794 0001:0005B0E3
 19795 0001:0005B0F1 19798 0001:0005B0F8 19799 0001:0005B0FF 19800 0001:0005B10D
 19803 0001:0005B114 19804 0001:0005B11B 19805 0001:0005B129 19809 0001:0005B130
 19810 0001:0005B137 19813 0001:0005B138 19814 0001:0005B13C 19815 0001:0005B148
 19818 0001:0005B14C 19819 0001:0005B153 19820 0001:0005B16C 19824 0001:0005B178
 19825 0001:0005B17F 19828 0001:0005B180 19829 0001:0005B189 19830 0001:0005B18D
 19831 0001:0005B1AC 19832 0001:0005B1B3 19837 0001:0005B1C8 19838 0001:0005B1DF
 19839 0001:0005B1EE 19840 0001:0005B1F1 19841 0001:0005B1F8 19845 0001:0005B218
 19846 0001:0005B21B 19847 0001:0005B21D 19853 0001:0005B224 19854 0001:0005B239
 19855 0001:0005B243 19856 0001:0005B24C 19860 0001:0005B268 19861 0001:0005B26C
 19862 0001:0005B27C 19876 0001:0005B284 19877 0001:0005B296 19878 0001:0005B2A6
 19879 0001:0005B2A9 19880 0001:0005B2B0 19886 0001:0005B2CC 19887 0001:0005B2E1
 19888 0001:0005B2EA 19889 0001:0005B2F4 19893 0001:0005B310 19894 0001:0005B318
 19899 0001:0005B31C 19900 0001:0005B32E 19901 0001:0005B33E 19902 0001:0005B341
 19903 0001:0005B348 19909 0001:0005B364 19910 0001:0005B379 19911 0001:0005B382
 19912 0001:0005B38C 19916 0001:0005B3A8 19917 0001:0005B3B0 19922 0001:0005B3B4
 19923 0001:0005B3BB 19924 0001:0005B3CD 19927 0001:0005B3D4 19928 0001:0005B3DB
 19929 0001:0005B3F0 19932 0001:0005B3F4 19933 0001:0005B3F8 19934 0001:0005B404
 19937 0001:0005B408 19938 0001:0005B40F 19939 0001:0005B424 19942 0001:0005B428
 19943 0001:0005B42B 19944 0001:0005B436 19948 0001:0005B43C 19949 0001:0005B443
 19952 0001:0005B444 19953 0001:0005B44B 19954 0001:0005B460 19957 0001:0005B464
 19958 0001:0005B46B 19959 0001:0005B479 19962 0001:0005B480 19963 0001:0005B484
 19964 0001:0005B48B 19967 0001:0005B490 19968 0001:0005B4AA 19969 0001:0005B4D7
 19972 0001:0005B4FC 19973 0001:0005B500 19974 0001:0005B50C 19977 0001:0005B510
 19978 0001:0005B514 19979 0001:0005B520 19982 0001:0005B524 19983 0001:0005B53E
 19984 0001:0005B56B 19987 0001:0005B590 19988 0001:0005B594 19989 0001:0005B5A0
 19992 0001:0005B5A4 19993 0001:0005B5AA 19994 0001:0005B5BB 19997 0001:0005B5C0
 19998 0001:0005B5DA 19999 0001:0005B607 20002 0001:0005B62C 20003 0001:0005B633
 20004 0001:0005B640 20007 0001:0005B644 20008 0001:0005B65E 20009 0001:0005B68B
 20012 0001:0005B6B0 20013 0001:0005B6B7 20014 0001:0005B6C9 20017 0001:0005B6D0
 20018 0001:0005B6D7 20019 0001:0005B6E4 20022 0001:0005B6E8 20023 0001:0005B702
 20024 0001:0005B72F 20027 0001:0005B754 20028 0001:0005B758 20029 0001:0005B764
 20034 0001:0005B768 20035 0001:0005B771 20036 0001:0005B77A 20037 0001:0005B787
 20040 0001:0005B790 20041 0001:0005B799 20042 0001:0005B79D 20043 0001:0005B7BC
 20044 0001:0005B7C3 20208 0001:0005B7D8 20209 0001:0005B7EF 20210 0001:0005B7FE
 20211 0001:0005B801 20212 0001:0005B808 20218 0001:0005B828 20219 0001:0005B83D
 20220 0001:0005B847 20221 0001:0005B850 20225 0001:0005B86C 20226 0001:0005B86D
 20227 0001:0005B875 20288 0001:0005B878 20290 0001:0005B89A

Line numbers for ceflib(ceflib.pas) segment .itext

 20284 0002:00000584 20285 0002:0000058D 20287 0002:00000595

Line numbers for ceffilescheme(ceffilescheme.pas) segment .text

    56 0001:0005F360    57 0001:0005F37E    58 0001:0005F385    61 0001:0005F390
    62 0001:0005F397    63 0001:0005F3BF    64 0001:0005F3CA    65 0001:0005F3EC
    66 0001:0005F400    59 0001:0005F403    68 0001:0005F40B    83 0001:0005F66C
    84 0001:0005F68F    85 0001:0005F699    86 0001:0005F6A5    87 0001:0005F6B1
    88 0001:0005F6B7    99 0001:0005F6D8   100 0001:0005F6E1   101 0001:0005F71D
   102 0001:0005F76A   103 0001:0005F7B7   104 0001:0005F804   105 0001:0005F84E
   106 0001:0005F898   107 0001:0005F8A4   114 0001:0005F978   115 0001:0005F994
   116 0001:0005F9A1   117 0001:0005F9AE   119 0001:0005F9E0   120 0001:0005FA09
   125 0001:0005FA2C   126 0001:0005FA52   127 0001:0005FA5D   128 0001:0005FA66
   129 0001:0005FABD   133 0001:0005FB60   135 0001:0005FB6B   136 0001:0005FB76
   137 0001:0005FB83   139 0001:0005FB87   140 0001:0005FB92   141 0001:0005FB9F
   142 0001:0005FBA4   148 0001:0005FBA8   149 0001:0005FBC9   150 0001:0005FBD8
   151 0001:0005FBEF   152 0001:0005FBF9   155 0001:0005FC07   156 0001:0005FC11
   158 0001:0005FC16   159 0001:0005FC17   160 0001:0005FC1C   163 0001:0005FC21
   164 0001:0005FC24   165 0001:0005FC25   166 0001:0005FC32   169 0001:0005FC6F
   170 0001:0005FC77   175 0001:0005FC79   177 0001:0005FC7B   178 0001:0005FC7C
   153 0001:0005FC7D   180 0001:0005FC84   181 0001:0005FC9C   189 0001:0005FCE0
   190 0001:0005FCFF   191 0001:0005FD08   192 0001:0005FD0A   195 0001:0005FD0C
   196 0001:0005FD32   197 0001:0005FD49   198 0001:0005FD4E   200 0001:0005FD53
   201 0001:0005FD5D   202 0001:0005FD62   203 0001:0005FD67   205 0001:0005FD71
   206 0001:0005FD76   208 0001:0005FD78   209 0001:0005FD7A   212 0001:0005FD89
   213 0001:0005FD8F   214 0001:0005FD94   219 0001:0005FD9B   223 0001:0005FDA4
   224 0001:0005FDB3   227 0001:0005FDBA   237 0001:0005FDEC   193 0001:0005FDEF
   240 0001:0005FDF4   241 0001:0005FDFC   247 0001:0005FE30   248 0001:0005FE45
   249 0001:0005FE5A   250 0001:0005FE5F   253 0001:0005FE7C   254 0001:0005FE87
   255 0001:0005FE8E   256 0001:0005FE93   257 0001:0005FE9E   261 0001:0005FEAC
   262 0001:0005FEC3   263 0001:0005FECD   264 0001:0005FED7   265 0001:0005FEE1
   266 0001:0005FEED   282 0001:0005FEF4   284 0001:0005FF0A   285 0001:0005FF19
   289 0001:0005FF3E   294 0001:0005FF60   296 0001:0005FF76   300 0001:0005FF85
   301 0001:0005FFAA   304 0001:0005FFCC   305 0001:0006000D   307 0001:00060014
   308 0001:00060043   309 0001:00060053   310 0001:00060057   312 0001:00060065
   314 0001:00060080   315 0001:0006008A   316 0001:0006009A   318 0001:000600A5
   319 0001:000600B7   320 0001:000600C5   321 0001:000600D5   322 0001:000600FD
   323 0001:00060126   324 0001:0006015A   326 0001:00060177   328 0001:0006018A
   329 0001:00060193   330 0001:000601A3   332 0001:000601C2   334 0001:000601D7
   335 0001:000601E1   336 0001:000601F1   337 0001:00060205   338 0001:00060213
   339 0001:00060235   340 0001:00060247   341 0001:00060266   342 0001:00060274
   344 0001:00060292   347 0001:000602A5   349 0001:000602EF   352 0001:0006031F
   353 0001:00060331   354 0001:0006036C   355 0001:0006037B   357 0001:00060386
   359 0001:00060396   360 0001:000603A7   359 0001:000603DD   362 0001:000603E0
   363 0001:000603EF   365 0001:0006040C   369 0001:0006041F   370 0001:00060429
   373 0001:00060439   375 0001:0006044B   377 0001:00060478   378 0001:00060488
   381 0001:00060497   382 0001:000604A2   386 0001:000607E0   387 0001:000607ED
   388 0001:000607FF   389 0001:00060801   390 0001:00060809   392 0001:00060819

Line numbers for cefclient(cefclient.dpr) segment .text

    99 0001:00060BF8   100 0001:00060C32   101 0001:00060C3E   103 0001:00060C4B
   106 0001:00060C55   107 0001:00060C67   108 0001:00060C73   109 0001:00060C87
   111 0001:00060C8B   112 0001:00060C95   114 0001:00060CCE   116 0001:00060CD5
   118 0001:00060CF1   120 0001:00060D0D   123 0001:00060D59   124 0001:00060D63
   125 0001:00060D6D   129 0001:00060D74   130 0001:00060D93   131 0001:00060D95
   133 0001:00060DA2   137 0001:00060DD0   139 0001:00060DD3   144 0001:00060E01
   146 0001:00060E04   151 0001:00060E32   153 0001:00060E35   157 0001:00060E63
   159 0001:00060E66   167 0001:00060E98   168 0001:00060EAE   170 0001:00060EC5
   171 0001:00060ED4   172 0001:00060EDB   173 0001:00060EE2   174 0001:00060EE5
   175 0001:00060EEE   176 0001:00060EF7   177 0001:00060F02   178 0001:00060F0A
   179 0001:00060F1B   181 0001:00060F25   182 0001:00060F40   183 0001:00060F47
   184 0001:00060F4E   185 0001:00060F55   186 0001:00060F61   191 0001:00060F68
   192 0001:00060F75   193 0001:00060F8B   194 0001:00060FA1   195 0001:00060FBA
   196 0001:00060FD0   199 0001:00060FD7   202 0001:00060FF2   203 0001:00060FFC
   207 0001:00061003   208 0001:0006100D   212 0001:00061014   213 0001:0006101E
   217 0001:00061025   218 0001:0006102F   221 0001:00061036   225 0001:0006104C
   226 0001:00061056   227 0001:0006105D   231 0001:00061073   232 0001:0006107C
   233 0001:000610A5   237 0001:000610AC   241 0001:000610B9   242 0001:000610C6
   243 0001:000610CD   244 0001:000610D9   245 0001:000610E3   246 0001:00061107
   248 0001:00061158   250 0001:00061161   253 0001:00061174   255 0001:00061187
   257 0001:00061198   263 0001:00061238   264 0001:0006124A   265 0001:00061253
   266 0001:00061270   267 0001:0006128D   268 0001:000612AA   271 0001:000612C4
   272 0001:000612CA   273 0001:000612D4   276 0001:000612D8   277 0001:000612DE
   278 0001:000612E8   281 0001:000612EC   282 0001:000612F2   283 0001:000612FC
   288 0001:00061300   289 0001:00061303   291 0001:00061312   292 0001:00061323
   294 0001:00061327   295 0001:00061329   298 0001:0006132C   299 0001:0006132F
   302 0001:0006133A   303 0001:00061346   305 0001:00061355   308 0001:00061358
   309 0001:0006135B   310 0001:0006136A   311 0001:00061374   318 0001:00061378
   319 0001:00061390   320 0001:0006139E   322 0001:000613A2   323 0001:000613A4
   325 0001:000613BB   331 0001:00061408   332 0001:0006140E   333 0001:0006141D
   334 0001:00061424   338 0001:0006142C   339 0001:0006142F   341 0001:0006143E
   342 0001:00061445   343 0001:00061451   345 0001:0006145D   351 0001:00061460
   352 0001:00061469   353 0001:00061483   354 0001:00061497   358 0001:000614A0
   359 0001:000614A6   360 0001:000614B5   361 0001:000614C8   365 0001:000614CC
   366 0001:000614DD   378 0001:000649C8

Line numbers for cefclient(cefclient.dpr) segment .itext

   373 0002:00000AA0   377 0002:00000AE6   378 0002:00000AF1   381 0002:00000B04
   382 0002:00000B0C   384 0002:00000B19   386 0002:00000B2B   387 0002:00000B39
   388 0002:00000B3F   389 0002:00000B46   390 0002:00000B4B   391 0002:00000B50
   392 0002:00000B58   393 0002:00000B67   394 0002:00000B76   395 0002:00000B7B
   396 0002:00000B80   398 0002:00000B88   400 0002:00000B8E   413 0002:00000BC7
   414 0002:00000BD4   417 0002:00000BDF   426 0002:00000BF1   428 0002:00000C03

Bound resource files

ceffilescheme.res
cefclient.drf


Program entry point at 0002:00000AA0
